;/////////////////////////////////////////////////////////////////////////////////
;// Code Generator: BoostC Compiler - http://www.sourceboost.com
;// Version       : 8.01
;// License Type  : Pro License
;// Limitations   : PIC12,PIC16 max code size:Unlimited, max RAM banks:Unlimited
;/////////////////////////////////////////////////////////////////////////////////

	ORG 0x00000000
0000  2E1A  	GOTO	_startup
	ORG 0x00000004
0004  00FF  	MOVWF Int1Context
0005  0E03  	SWAPF STATUS, W
0006  1283  	BCF STATUS, RP0
0007  1303  	BCF STATUS, RP1
0008  00B0  	MOVWF Int1BContext
0009  0E0A  	SWAPF PCLATH, W
000A  00B1  	MOVWF Int1BContext+D'1'
000B  0E04  	SWAPF FSR, W
000C  00B2  	MOVWF Int1BContext+D'2'
000D  118A  	BCF PCLATH,3
000E  120A  	BCF PCLATH,4
000F  2E74  	GOTO	interrupt
	ORG 0x00000010
0010        delay_us_00000
0010        ; { delay_us ; function begin
0010  3003  	MOVLW 0x03
0011  07ED  	ADDWF delay_us_00000_arg_del, F
0012  0CED  	RRF delay_us_00000_arg_del, F
0013  0CED  	RRF delay_us_00000_arg_del, F
0014  307F  	MOVLW 0x7F
0015  05ED  	ANDWF delay_us_00000_arg_del, F
0016        label1
0016  0000  	NOP
0017  0BED  	DECFSZ delay_us_00000_arg_del, F
0018  2816  	GOTO	label1
0019  0008  	RETURN
001A        ; } delay_us function end

	ORG 0x0000001A
001A        delay_10us_00000
001A        ; { delay_10us ; function begin
001A        label2
001A  0000  	NOP
001B  0000  	NOP
001C  0000  	NOP
001D  0000  	NOP
001E  0000  	NOP
001F  0000  	NOP
0020  0000  	NOP
0021  0BED  	DECFSZ delay_10us_00000_arg_del, F
0022  281A  	GOTO	label2
0023  0008  	RETURN
0024        ; } delay_10us function end

	ORG 0x00000024
0024        __rom_get_00000
0024        ; { __rom_get ; function begin
0024  0870  	MOVF __rom_get_00000_arg_objNumb, W
0025  00F3  	MOVWF __rom_get_00000_1_romAddr+D'1'
0026  01F2  	CLRF __rom_get_00000_1_romAddr
0027  1003  	BCF STATUS,C
0028  0DF3  	RLF __rom_get_00000_1_romAddr+D'1', F
0029  0DF2  	RLF __rom_get_00000_1_romAddr, F
002A  0DF3  	RLF __rom_get_00000_1_romAddr+D'1', F
002B  0DF2  	RLF __rom_get_00000_1_romAddr, F
002C  3037  	MOVLW	LOW( label3 )
002D  07F3  	ADDWF __rom_get_00000_1_romAddr+D'1', F
002E  1803  	BTFSC STATUS,C
002F  0AF2  	INCF __rom_get_00000_1_romAddr, F
0030  3000  	MOVLW	HIGH( label3 )
0031  0772  	ADDWF __rom_get_00000_1_romAddr, W
0032  008A  	MOVWF PCLATH
0033  0871  	MOVF __rom_get_00000_arg_idx, W
0034  00F2  	MOVWF __rom_get_00000_1_romAddr
0035  0873  	MOVF __rom_get_00000_1_romAddr+D'1', W
0036  0082  	MOVWF PCL
0037        label3
0037  3000  	MOVLW	HIGH( label5 )
0038  00F3  	MOVWF __rom_get_00000_1_romAddr+D'1'
0039  3049  	MOVLW	LOW( label5 )
003A  2842  	GOTO	label4
003B  3000  	MOVLW	HIGH( label6 )
003C  00F3  	MOVWF __rom_get_00000_1_romAddr+D'1'
003D  3055  	MOVLW	LOW( label6 )
003E  2842  	GOTO	label4
003F  3000  	MOVLW	HIGH( label7 )
0040  00F3  	MOVWF __rom_get_00000_1_romAddr+D'1'
0041  306D  	MOVLW	LOW( label7 )
0042        label4
0042  07F2  	ADDWF __rom_get_00000_1_romAddr, F
0043  1803  	BTFSC STATUS,C
0044  0AF3  	INCF __rom_get_00000_1_romAddr+D'1', F
0045  0873  	MOVF __rom_get_00000_1_romAddr+D'1', W
0046  008A  	MOVWF PCLATH
0047  0872  	MOVF __rom_get_00000_1_romAddr, W
0048  0082  	MOVWF PCL
0049        label5
0049  3431  	RETLW 0x31
004A  3428  	RETLW 0x28
004B  3431  	RETLW 0x31
004C  3430  	RETLW 0x30
004D  3431  	RETLW 0x31
004E  3430  	RETLW 0x30
004F  3431  	RETLW 0x31
0050  3431  	RETLW 0x31
0051  3430  	RETLW 0x30
0052  3431  	RETLW 0x31
0053  3430  	RETLW 0x30
0054  3431  	RETLW 0x31
0055        label6
0055  3404  	RETLW 0x04
0056  3408  	RETLW 0x08
0057  3412  	RETLW 0x12
0058  3416  	RETLW 0x16
0059  3420  	RETLW 0x20
005A  3424  	RETLW 0x24
005B  3428  	RETLW 0x28
005C  3432  	RETLW 0x32
005D  3436  	RETLW 0x36
005E  3440  	RETLW 0x40
005F  3444  	RETLW 0x44
0060  3448  	RETLW 0x48
0061  3452  	RETLW 0x52
0062  3456  	RETLW 0x56
0063  3460  	RETLW 0x60
0064  3464  	RETLW 0x64
0065  3468  	RETLW 0x68
0066  3472  	RETLW 0x72
0067  3476  	RETLW 0x76
0068  3480  	RETLW 0x80
0069  3484  	RETLW 0x84
006A  3488  	RETLW 0x88
006B  3492  	RETLW 0x92
006C  3496  	RETLW 0x96
006D        label7
006D  343F  	RETLW 0x3F
006E  3406  	RETLW 0x06
006F  345B  	RETLW 0x5B
0070  344F  	RETLW 0x4F
0071  3466  	RETLW 0x66
0072  346D  	RETLW 0x6D
0073  347D  	RETLW 0x7D
0074  3407  	RETLW 0x07
0075  347F  	RETLW 0x7F
0076  346F  	RETLW 0x6F
0077        ; } __rom_get function end

	ORG 0x00000077
0077        i2c_WRITE_00000
0077        ; { i2c_WRITE ; function begin
0077  11C6  	BCF i2c_WRITE_00000_1_l_bclif,3
0078  11C5  	BCF i2c_WRITE_00000_1_l_sspif,3
0079  13C0  	BCF i2c_WRITE_00000_1_l_wcol,7
007A  086A  	MOVF i2c_WRITE_00000_arg_i2c_data, W
007B  00C4  	MOVWF i2c_WRITE_00000_1_i2c_SSPBUF
007C  1105  	BCF i2c_WRITE_00000_1_l_scl,2
007D  1185  	BCF i2c_WRITE_00000_1_l_sda,3
007E  1142  	BCF i2c_WRITE_00000_1_l_rw,2
007F  3080  	MOVLW 0x80
0080  00EB  	MOVWF i2c_WRITE_00000_1_BitMask
0081        label8
0081  08EB  	MOVF i2c_WRITE_00000_1_BitMask, F
0082  1903  	BTFSC STATUS,Z
0083  28A4  	GOTO	label13
0084  086B  	MOVF i2c_WRITE_00000_1_BitMask, W
0085  056A  	ANDWF i2c_WRITE_00000_arg_i2c_data, W
0086  1903  	BTFSC STATUS,Z
0087  288B  	GOTO	label9
0088  1683  	BSF STATUS, RP0
0089  1585  	BSF i2c_WRITE_00000_1_l_sda_tris,3
008A  288D  	GOTO	label10
008B        label9
008B  1683  	BSF STATUS, RP0
008C  1185  	BCF i2c_WRITE_00000_1_l_sda_tris,3
008D        label10
008D  300A  	MOVLW 0x0A
008E  1283  	BCF STATUS, RP0
008F  00ED  	MOVWF delay_us_00000_arg_del
0090  2010  	CALL delay_us_00000
0091  1683  	BSF STATUS, RP0
0092  1505  	BSF i2c_WRITE_00000_1_l_scl_tris,2
0093        label11
0093  1283  	BCF STATUS, RP0
0094  1905  	BTFSC i2c_WRITE_00000_1_l_scl,2
0095  2898  	GOTO	label12
0096  0064  	CLRWDT
0097  2893  	GOTO	label11
0098        label12
0098  300A  	MOVLW 0x0A
0099  00ED  	MOVWF delay_us_00000_arg_del
009A  2010  	CALL delay_us_00000
009B  1683  	BSF STATUS, RP0
009C  1105  	BCF i2c_WRITE_00000_1_l_scl_tris,2
009D  300A  	MOVLW 0x0A
009E  1283  	BCF STATUS, RP0
009F  00ED  	MOVWF delay_us_00000_arg_del
00A0  2010  	CALL delay_us_00000
00A1  1003  	BCF STATUS,C
00A2  0CEB  	RRF i2c_WRITE_00000_1_BitMask, F
00A3  2881  	GOTO	label8
00A4        label13
00A4  15C5  	BSF i2c_WRITE_00000_1_l_sspif,3
00A5  1641  	BSF i2c_WRITE_00000_1_l_acken,4
00A6  12C1  	BCF i2c_WRITE_00000_1_l_ackdt,5
00A7  1683  	BSF STATUS, RP0
00A8  1585  	BSF i2c_WRITE_00000_1_l_sda_tris,3
00A9  300A  	MOVLW 0x0A
00AA  1283  	BCF STATUS, RP0
00AB  00ED  	MOVWF delay_us_00000_arg_del
00AC  2010  	CALL delay_us_00000
00AD  1683  	BSF STATUS, RP0
00AE  1505  	BSF i2c_WRITE_00000_1_l_scl_tris,2
00AF        label14
00AF  1283  	BCF STATUS, RP0
00B0  1905  	BTFSC i2c_WRITE_00000_1_l_scl,2
00B1  28B4  	GOTO	label15
00B2  0064  	CLRWDT
00B3  28AF  	GOTO	label14
00B4        label15
00B4  300A  	MOVLW 0x0A
00B5  00ED  	MOVWF delay_us_00000_arg_del
00B6  2010  	CALL delay_us_00000
00B7  106C  	BCF i2c_WRITE_00000_1_local_ack,0
00B8  1985  	BTFSC i2c_WRITE_00000_1_l_sda,3
00B9  146C  	BSF i2c_WRITE_00000_1_local_ack,0
00BA  300A  	MOVLW 0x0A
00BB  00ED  	MOVWF delay_us_00000_arg_del
00BC  2010  	CALL delay_us_00000
00BD  1683  	BSF STATUS, RP0
00BE  1105  	BCF i2c_WRITE_00000_1_l_scl_tris,2
00BF  1283  	BCF STATUS, RP0
00C0  1241  	BCF i2c_WRITE_00000_1_l_acken,4
00C1  300A  	MOVLW 0x0A
00C2  00ED  	MOVWF delay_us_00000_arg_del
00C3  2010  	CALL delay_us_00000
00C4  01ED  	CLRF CompTempVarRet551
00C5  186C  	BTFSC i2c_WRITE_00000_1_local_ack,0
00C6  0AED  	INCF CompTempVarRet551, F
00C7  0008  	RETURN
00C8        ; } i2c_WRITE function end

	ORG 0x000000C8
00C8        i2c_STOP_00000
00C8        ; { i2c_STOP ; function begin
00C8  1283  	BCF STATUS, RP0
00C9  1303  	BCF STATUS, RP1
00CA  11C6  	BCF i2c_STOP_00000_1_l_bclif,3
00CB  11C5  	BCF i2c_STOP_00000_1_l_sspif,3
00CC  1541  	BSF i2c_STOP_00000_1_l_pen,2
00CD  300A  	MOVLW 0x0A
00CE  00ED  	MOVWF delay_us_00000_arg_del
00CF  2010  	CALL delay_us_00000
00D0  1105  	BCF i2c_STOP_00000_1_l_scl,2
00D1  1185  	BCF i2c_STOP_00000_1_l_sda,3
00D2  1683  	BSF STATUS, RP0
00D3  1105  	BCF i2c_STOP_00000_1_l_scl_tris,2
00D4  1185  	BCF i2c_STOP_00000_1_l_sda_tris,3
00D5  300A  	MOVLW 0x0A
00D6  1283  	BCF STATUS, RP0
00D7  00ED  	MOVWF delay_us_00000_arg_del
00D8  2010  	CALL delay_us_00000
00D9  1683  	BSF STATUS, RP0
00DA  1505  	BSF i2c_STOP_00000_1_l_scl_tris,2
00DB        label16
00DB  1283  	BCF STATUS, RP0
00DC  1905  	BTFSC i2c_STOP_00000_1_l_scl,2
00DD  28E0  	GOTO	label17
00DE  0064  	CLRWDT
00DF  28DB  	GOTO	label16
00E0        label17
00E0  300A  	MOVLW 0x0A
00E1  00ED  	MOVWF delay_us_00000_arg_del
00E2  2010  	CALL delay_us_00000
00E3  1683  	BSF STATUS, RP0
00E4  1585  	BSF i2c_STOP_00000_1_l_sda_tris,3
00E5  300A  	MOVLW 0x0A
00E6  1283  	BCF STATUS, RP0
00E7  00ED  	MOVWF delay_us_00000_arg_del
00E8  2010  	CALL delay_us_00000
00E9  1D85  	BTFSS i2c_STOP_00000_1_l_sda,3
00EA  28ED  	GOTO	label18
00EB  1905  	BTFSC i2c_STOP_00000_1_l_scl,2
00EC  28F1  	GOTO	label19
00ED        label18
00ED  15C6  	BSF i2c_STOP_00000_1_l_bclif,3
00EE  11C2  	BCF i2c_STOP_00000_1_l_s,3
00EF  1141  	BCF i2c_STOP_00000_1_l_pen,2
00F0  0008  	RETURN
00F1        label19
00F1  1642  	BSF i2c_STOP_00000_1_l_p,4
00F2  1141  	BCF i2c_STOP_00000_1_l_pen,2
00F3  1041  	BCF i2c_STOP_00000_1_l_sen,0
00F4  10C1  	BCF i2c_STOP_00000_1_l_rsen,1
00F5  11C1  	BCF i2c_STOP_00000_1_l_rcen,3
00F6  1241  	BCF i2c_STOP_00000_1_l_acken,4
00F7  0008  	RETURN
00F8        ; } i2c_STOP function end

	ORG 0x000000F8
00F8        i2c_START_00000
00F8        ; { i2c_START ; function begin
00F8  300A  	MOVLW 0x0A
00F9  1283  	BCF STATUS, RP0
00FA  1303  	BCF STATUS, RP1
00FB  00ED  	MOVWF delay_us_00000_arg_del
00FC  2010  	CALL delay_us_00000
00FD  11C6  	BCF i2c_START_00000_1_l_bclif,3
00FE  11C5  	BCF i2c_START_00000_1_l_sspif,3
00FF  1441  	BSF i2c_START_00000_1_l_sen,0
0100  1683  	BSF STATUS, RP0
0101  1505  	BSF i2c_START_00000_1_l_scl_tris,2
0102  1585  	BSF i2c_START_00000_1_l_sda_tris,3
0103  1283  	BCF STATUS, RP0
0104  1105  	BCF i2c_START_00000_1_l_scl,2
0105  1185  	BCF i2c_START_00000_1_l_sda,3
0106  1D05  	BTFSS i2c_START_00000_1_l_scl,2
0107  2925  	GOTO	label21
0108  1D85  	BTFSS i2c_START_00000_1_l_sda,3
0109  2925  	GOTO	label21
010A  300A  	MOVLW 0x0A
010B  00ED  	MOVWF delay_us_00000_arg_del
010C  2010  	CALL delay_us_00000
010D  1905  	BTFSC i2c_START_00000_1_l_scl,2
010E  2913  	GOTO	label20
010F  15C6  	BSF i2c_START_00000_1_l_bclif,3
0110  15C2  	BSF i2c_START_00000_1_l_s,3
0111  1041  	BCF i2c_START_00000_1_l_sen,0
0112  0008  	RETURN
0113        label20
0113  1185  	BCF i2c_START_00000_1_l_sda,3
0114  1683  	BSF STATUS, RP0
0115  1185  	BCF i2c_START_00000_1_l_sda_tris,3
0116  300A  	MOVLW 0x0A
0117  1283  	BCF STATUS, RP0
0118  00ED  	MOVWF delay_us_00000_arg_del
0119  2010  	CALL delay_us_00000
011A  1105  	BCF i2c_START_00000_1_l_scl,2
011B  1683  	BSF STATUS, RP0
011C  1105  	BCF i2c_START_00000_1_l_scl_tris,2
011D  300A  	MOVLW 0x0A
011E  1283  	BCF STATUS, RP0
011F  00ED  	MOVWF delay_us_00000_arg_del
0120  2010  	CALL delay_us_00000
0121  15C2  	BSF i2c_START_00000_1_l_s,3
0122  1041  	BCF i2c_START_00000_1_l_sen,0
0123  15C5  	BSF i2c_START_00000_1_l_sspif,3
0124  0008  	RETURN
0125        label21
0125  15C6  	BSF i2c_START_00000_1_l_bclif,3
0126  15C2  	BSF i2c_START_00000_1_l_s,3
0127  1041  	BCF i2c_START_00000_1_l_sen,0
0128  10C1  	BCF i2c_START_00000_1_l_rsen,1
0129  1141  	BCF i2c_START_00000_1_l_pen,2
012A  11C1  	BCF i2c_START_00000_1_l_rcen,3
012B  1241  	BCF i2c_START_00000_1_l_acken,4
012C  0008  	RETURN
012D        ; } i2c_START function end

	ORG 0x0000012D
012D        oneWireTxB_00014
012D        ; { oneWireTxByte ; function begin
012D  3001  	MOVLW 0x01
012E  00EB  	MOVWF oneWireTxB_00014_1_cTemp
012F  01EC  	CLRF oneWireTxB_00014_2_i
0130        label22
0130  3008  	MOVLW 0x08
0131  026C  	SUBWF oneWireTxB_00014_2_i, W
0132  1803  	BTFSC STATUS,C
0133  0008  	RETURN
0134  1683  	BSF STATUS, RP0
0135  1305  	BCF gbl_trisa,6
0136  1283  	BCF STATUS, RP0
0137  1305  	BCF gbl_porta,6
0138  086B  	MOVF oneWireTxB_00014_1_cTemp, W
0139  056A  	ANDWF oneWireTxB_00014_arg_cData, W
013A  1903  	BTFSC STATUS,Z
013B  293E  	GOTO	label23
013C  1683  	BSF STATUS, RP0
013D  1705  	BSF gbl_trisa,6
013E        label23
013E  3005  	MOVLW 0x05
013F  1283  	BCF STATUS, RP0
0140  00ED  	MOVWF delay_10us_00000_arg_del
0141  201A  	CALL delay_10us_00000
0142  1683  	BSF STATUS, RP0
0143  1705  	BSF gbl_trisa,6
0144  1003  	BCF STATUS,C
0145  1283  	BCF STATUS, RP0
0146  0DEB  	RLF oneWireTxB_00014_1_cTemp, F
0147  0AEC  	INCF oneWireTxB_00014_2_i, F
0148  2930  	GOTO	label22
0149        ; } oneWireTxByte function end

	ORG 0x00000149
0149        eepromRead_00000
0149        ; { eepromRead ; function begin
0149  0868  	MOVF eepromRead_00000_arg_address, W
014A  1683  	BSF STATUS, RP0
014B  009B  	MOVWF gbl_eeadr
014C  141C  	BSF gbl_eecon1,0
014D  081A  	MOVF gbl_eedata, W
014E  1283  	BCF STATUS, RP0
014F  00E9  	MOVWF CompTempVarRet550
0150  0008  	RETURN
0151        ; } eepromRead function end

	ORG 0x00000151
0151        ds3231Writ_0001A
0151        ; { ds3231Write ; function begin
0151  20F8  	CALL i2c_START_00000
0152  30D0  	MOVLW 0xD0
0153  00EA  	MOVWF i2c_WRITE_00000_arg_i2c_data
0154  2077  	CALL i2c_WRITE_00000
0155  0868  	MOVF ds3231Writ_0001A_arg_ds3231Reg, W
0156  00EA  	MOVWF i2c_WRITE_00000_arg_i2c_data
0157  2077  	CALL i2c_WRITE_00000
0158  0869  	MOVF ds3231Writ_0001A_arg_bWrite, W
0159  00EA  	MOVWF i2c_WRITE_00000_arg_i2c_data
015A  2077  	CALL i2c_WRITE_00000
015B  20C8  	CALL i2c_STOP_00000
015C  0008  	RETURN
015D        ; } ds3231Write function end

	ORG 0x0000015D
015D        bcdAdjust_00000
015D        ; { bcdAdjust ; function begin
015D  036E  	DECF bcdAdjust_00000_arg_iAdjustment, W
015E  1D03  	BTFSS STATUS,Z
015F  2975  	GOTO	label27
0160  086C  	MOVF bcdAdjust_00000_arg_bcdMax, W
0161  066B  	XORWF bcdAdjust_00000_arg_bcd, W
0162  1D03  	BTFSS STATUS,Z
0163  2967  	GOTO	label24
0164  086D  	MOVF bcdAdjust_00000_arg_bcdMin, W
0165  00EB  	MOVWF bcdAdjust_00000_arg_bcd
0166  2972  	GOTO	label26
0167        label24
0167  300F  	MOVLW 0x0F
0168  056B  	ANDWF bcdAdjust_00000_arg_bcd, W
0169  00EF  	MOVWF CompTempVar586
016A  086F  	MOVF CompTempVar586, W
016B  3A09  	XORLW 0x09
016C  1D03  	BTFSS STATUS,Z
016D  2971  	GOTO	label25
016E  3010  	MOVLW 0x10
016F  07EB  	ADDWF bcdAdjust_00000_arg_bcd, F
0170  2972  	GOTO	label26
0171        label25
0171  0AEB  	INCF bcdAdjust_00000_arg_bcd, F
0172        label26
0172  086B  	MOVF bcdAdjust_00000_arg_bcd, W
0173  00F2  	MOVWF CompTempVarRet585
0174  0008  	RETURN
0175        label27
0175  086D  	MOVF bcdAdjust_00000_arg_bcdMin, W
0176  066B  	XORWF bcdAdjust_00000_arg_bcd, W
0177  1D03  	BTFSS STATUS,Z
0178  297C  	GOTO	label28
0179  086C  	MOVF bcdAdjust_00000_arg_bcdMax, W
017A  00EB  	MOVWF bcdAdjust_00000_arg_bcd
017B  2986  	GOTO	label30
017C        label28
017C  300F  	MOVLW 0x0F
017D  056B  	ANDWF bcdAdjust_00000_arg_bcd, W
017E  00EF  	MOVWF CompTempVar587
017F  08EF  	MOVF CompTempVar587, F
0180  1D03  	BTFSS STATUS,Z
0181  2985  	GOTO	label29
0182  3010  	MOVLW 0x10
0183  02EB  	SUBWF bcdAdjust_00000_arg_bcd, F
0184  2986  	GOTO	label30
0185        label29
0185  03EB  	DECF bcdAdjust_00000_arg_bcd, F
0186        label30
0186  086B  	MOVF bcdAdjust_00000_arg_bcd, W
0187  00F2  	MOVWF CompTempVarRet585
0188  0008  	RETURN
0189        ; } bcdAdjust function end

	ORG 0x00000189
0189        tm1638Byte_0001E
0189        ; { tm1638ByteWrite ; function begin
0189  01EB  	CLRF tm1638Byte_0001E_2_i
018A        label31
018A  3008  	MOVLW 0x08
018B  026B  	SUBWF tm1638Byte_0001E_2_i, W
018C  1803  	BTFSC STATUS,C
018D  0008  	RETURN
018E  3001  	MOVLW 0x01
018F  056A  	ANDWF tm1638Byte_0001E_arg_bWrite, W
0190  00EC  	MOVWF CompTempVar553
0191  186C  	BTFSC CompTempVar553,0
0192  1485  	BSF gbl_porta,1
0193  1C6C  	BTFSS CompTempVar553,0
0194  1085  	BCF gbl_porta,1
0195  1005  	BCF gbl_porta,0
0196  08EA  	MOVF tm1638Byte_0001E_arg_bWrite, F
0197  1003  	BCF STATUS,C
0198  0CEA  	RRF tm1638Byte_0001E_arg_bWrite, F
0199  1405  	BSF gbl_porta,0
019A  0AEB  	INCF tm1638Byte_0001E_2_i, F
019B  298A  	GOTO	label31
019C        ; } tm1638ByteWrite function end

	ORG 0x0000019C
019C        oneWireTxB_00015
019C        ; { oneWireTxBytes ; function begin
019C  0868  	MOVF oneWireTxB_00015_arg_cData, W
019D  00EA  	MOVWF oneWireTxB_00014_arg_cData
019E  212D  	CALL oneWireTxB_00014
019F  0869  	MOVF oneWireTxB_00015_arg_cData2, W
01A0  00EA  	MOVWF oneWireTxB_00014_arg_cData
01A1  212D  	CALL oneWireTxB_00014
01A2  0008  	RETURN
01A3        ; } oneWireTxBytes function end

	ORG 0x000001A3
01A3        oneWireRxB_00016
01A3        ; { oneWireRxByte ; function begin
01A3  1283  	BCF STATUS, RP0
01A4  1303  	BCF STATUS, RP1
01A5  01E8  	CLRF oneWireRxB_00016_1_cDataIn
01A6  01E9  	CLRF oneWireRxB_00016_2_i
01A7        label32
01A7  3008  	MOVLW 0x08
01A8  0269  	SUBWF oneWireRxB_00016_2_i, W
01A9  1803  	BTFSC STATUS,C
01AA  29BE  	GOTO	label33
01AB  1683  	BSF STATUS, RP0
01AC  1305  	BCF gbl_trisa,6
01AD  1283  	BCF STATUS, RP0
01AE  1305  	BCF gbl_porta,6
01AF  1683  	BSF STATUS, RP0
01B0  1705  	BSF gbl_trisa,6
01B1  3006  	MOVLW 0x06
01B2  1283  	BCF STATUS, RP0
01B3  00ED  	MOVWF delay_us_00000_arg_del
01B4  2010  	CALL delay_us_00000
01B5  1003  	BCF STATUS,C
01B6  0CE8  	RRF oneWireRxB_00016_1_cDataIn, F
01B7  1B05  	BTFSC gbl_porta,6
01B8  17E8  	BSF oneWireRxB_00016_1_cDataIn,7
01B9  3006  	MOVLW 0x06
01BA  00ED  	MOVWF delay_10us_00000_arg_del
01BB  201A  	CALL delay_10us_00000
01BC  0AE9  	INCF oneWireRxB_00016_2_i, F
01BD  29A7  	GOTO	label32
01BE        label33
01BE  0868  	MOVF oneWireRxB_00016_1_cDataIn, W
01BF  00E9  	MOVWF CompTempVarRet548
01C0  0008  	RETURN
01C1        ; } oneWireRxByte function end

	ORG 0x000001C1
01C1        i2c_READ_00000
01C1        ; { i2c_READ ; function begin
01C1  11C6  	BCF i2c_READ_00000_1_l_bclif,3
01C2  11C5  	BCF i2c_READ_00000_1_l_sspif,3
01C3  13C0  	BCF i2c_READ_00000_1_l_wcol,7
01C4  15C1  	BSF i2c_READ_00000_1_l_rcen,3
01C5  1868  	BTFSC i2c_READ_00000_arg_ack_status,0
01C6  16C1  	BSF i2c_READ_00000_1_l_ackdt,5
01C7  1C68  	BTFSS i2c_READ_00000_arg_ack_status,0
01C8  12C1  	BCF i2c_READ_00000_1_l_ackdt,5
01C9  1542  	BSF i2c_READ_00000_1_l_rw,2
01CA  1105  	BCF i2c_READ_00000_1_l_scl,2
01CB  1185  	BCF i2c_READ_00000_1_l_sda,3
01CC  1683  	BSF STATUS, RP0
01CD  1585  	BSF i2c_READ_00000_1_l_sda_tris,3
01CE  300A  	MOVLW 0x0A
01CF  1283  	BCF STATUS, RP0
01D0  00ED  	MOVWF delay_us_00000_arg_del
01D1  2010  	CALL delay_us_00000
01D2  01EA  	CLRF i2c_READ_00000_1_i2c_data
01D3  3080  	MOVLW 0x80
01D4  00E9  	MOVWF i2c_READ_00000_1_BitMask
01D5        label34
01D5  08E9  	MOVF i2c_READ_00000_1_BitMask, F
01D6  1903  	BTFSC STATUS,Z
01D7  29F2  	GOTO	label38
01D8  1683  	BSF STATUS, RP0
01D9  1505  	BSF i2c_READ_00000_1_l_scl_tris,2
01DA        label35
01DA  1283  	BCF STATUS, RP0
01DB  1905  	BTFSC i2c_READ_00000_1_l_scl,2
01DC  29DF  	GOTO	label36
01DD  0064  	CLRWDT
01DE  29DA  	GOTO	label35
01DF        label36
01DF  300A  	MOVLW 0x0A
01E0  00ED  	MOVWF delay_us_00000_arg_del
01E1  2010  	CALL delay_us_00000
01E2  1683  	BSF STATUS, RP0
01E3  1585  	BSF i2c_READ_00000_1_l_sda_tris,3
01E4  1283  	BCF STATUS, RP0
01E5  1D85  	BTFSS i2c_READ_00000_1_l_sda,3
01E6  29E9  	GOTO	label37
01E7  0869  	MOVF i2c_READ_00000_1_BitMask, W
01E8  04EA  	IORWF i2c_READ_00000_1_i2c_data, F
01E9        label37
01E9  1683  	BSF STATUS, RP0
01EA  1105  	BCF i2c_READ_00000_1_l_scl_tris,2
01EB  300A  	MOVLW 0x0A
01EC  1283  	BCF STATUS, RP0
01ED  00ED  	MOVWF delay_us_00000_arg_del
01EE  2010  	CALL delay_us_00000
01EF  1003  	BCF STATUS,C
01F0  0CE9  	RRF i2c_READ_00000_1_BitMask, F
01F1  29D5  	GOTO	label34
01F2        label38
01F2  15C5  	BSF i2c_READ_00000_1_l_sspif,3
01F3  11C1  	BCF i2c_READ_00000_1_l_rcen,3
01F4  08E8  	MOVF i2c_READ_00000_arg_ack_status, F
01F5  1903  	BTFSC STATUS,Z
01F6  29FA  	GOTO	label39
01F7  1683  	BSF STATUS, RP0
01F8  1585  	BSF i2c_READ_00000_1_l_sda_tris,3
01F9  29FC  	GOTO	label40
01FA        label39
01FA  1683  	BSF STATUS, RP0
01FB  1185  	BCF i2c_READ_00000_1_l_sda_tris,3
01FC        label40
01FC  300A  	MOVLW 0x0A
01FD  1283  	BCF STATUS, RP0
01FE  00ED  	MOVWF delay_us_00000_arg_del
01FF  2010  	CALL delay_us_00000
0200  1683  	BSF STATUS, RP0
0201  1505  	BSF i2c_READ_00000_1_l_scl_tris,2
0202        label41
0202  1283  	BCF STATUS, RP0
0203  1905  	BTFSC i2c_READ_00000_1_l_scl,2
0204  2A07  	GOTO	label42
0205  0064  	CLRWDT
0206  2A02  	GOTO	label41
0207        label42
0207  11C5  	BCF i2c_READ_00000_1_l_sspif,3
0208  300A  	MOVLW 0x0A
0209  00ED  	MOVWF delay_us_00000_arg_del
020A  2010  	CALL delay_us_00000
020B  1683  	BSF STATUS, RP0
020C  1105  	BCF i2c_READ_00000_1_l_scl_tris,2
020D  1283  	BCF STATUS, RP0
020E  15C5  	BSF i2c_READ_00000_1_l_sspif,3
020F  300A  	MOVLW 0x0A
0210  00ED  	MOVWF delay_us_00000_arg_del
0211  2010  	CALL delay_us_00000
0212  086A  	MOVF i2c_READ_00000_1_i2c_data, W
0213  00EB  	MOVWF CompTempVarRet552
0214  0008  	RETURN
0215        ; } i2c_READ function end

	ORG 0x00000215
0215        i2c_INIT_00000
0215        ; { i2c_INIT ; function begin
0215  1683  	BSF STATUS, RP0
0216  1585  	BSF i2c_INIT_00000_1_l_sda_tris,3
0217  1505  	BSF i2c_INIT_00000_1_l_scl_tris,2
0218  1283  	BCF STATUS, RP0
0219  01C0  	CLRF i2c_INIT_00000_1_i2c_SSPCON1
021A  0868  	MOVF i2c_INIT_00000_arg_i2c_divisor, W
021B  00C3  	MOVWF i2c_INIT_00000_1_i2c_SSPADD
021C  3008  	MOVLW 0x08
021D  00C0  	MOVWF i2c_INIT_00000_1_i2c_SSPCON1
021E  01C1  	CLRF i2c_INIT_00000_1_i2c_SSPCON2
021F  01C2  	CLRF i2c_INIT_00000_1_i2c_SSPSTAT
0220  17C2  	BSF i2c_INIT_00000_1_l_smp,7
0221  11C5  	BCF i2c_INIT_00000_1_l_sspif,3
0222  11C6  	BCF i2c_INIT_00000_1_l_bclif,3
0223  1185  	BCF i2c_INIT_00000_1_l_sda,3
0224  1105  	BCF i2c_INIT_00000_1_l_scl,2
0225  16C0  	BSF i2c_INIT_00000_1_l_sspen,5
0226  20C8  	CALL i2c_STOP_00000
0227  0008  	RETURN
0228        ; } i2c_INIT function end

	ORG 0x00000228
0228        eepromRead_00019
0228        ; { eepromReadAll ; function begin
0228  1283  	BCF STATUS, RP0
0229  1303  	BCF STATUS, RP1
022A  01E8  	CLRF eepromRead_00000_arg_address
022B  2149  	CALL eepromRead_00000
022C  0869  	MOVF CompTempVarRet550, W
022D  3A0A  	XORLW 0x0A
022E  1D03  	BTFSS STATUS,Z
022F  0008  	RETURN
0230  3001  	MOVLW 0x01
0231  00E8  	MOVWF eepromRead_00000_arg_address
0232  2149  	CALL eepromRead_00000
0233  0869  	MOVF CompTempVarRet550, W
0234  00D1  	MOVWF gbl_gBcdWhiteOnMinute
0235  3002  	MOVLW 0x02
0236  00E8  	MOVWF eepromRead_00000_arg_address
0237  2149  	CALL eepromRead_00000
0238  0869  	MOVF CompTempVarRet550, W
0239  00D2  	MOVWF gbl_gBcdWhiteOnHour
023A  3003  	MOVLW 0x03
023B  00E8  	MOVWF eepromRead_00000_arg_address
023C  2149  	CALL eepromRead_00000
023D  0869  	MOVF CompTempVarRet550, W
023E  00D3  	MOVWF gbl_gBcdWhiteOffMinute
023F  3004  	MOVLW 0x04
0240  00E8  	MOVWF eepromRead_00000_arg_address
0241  2149  	CALL eepromRead_00000
0242  0869  	MOVF CompTempVarRet550, W
0243  00D4  	MOVWF gbl_gBcdWhiteOffHour
0244  3005  	MOVLW 0x05
0245  00E8  	MOVWF eepromRead_00000_arg_address
0246  2149  	CALL eepromRead_00000
0247  0869  	MOVF CompTempVarRet550, W
0248  00D5  	MOVWF gbl_gBcdBlueOnMinute
0249  3006  	MOVLW 0x06
024A  00E8  	MOVWF eepromRead_00000_arg_address
024B  2149  	CALL eepromRead_00000
024C  0869  	MOVF CompTempVarRet550, W
024D  00D6  	MOVWF gbl_gBcdBlueOnHour
024E  3007  	MOVLW 0x07
024F  00E8  	MOVWF eepromRead_00000_arg_address
0250  2149  	CALL eepromRead_00000
0251  0869  	MOVF CompTempVarRet550, W
0252  00D7  	MOVWF gbl_gBcdBlueOffMinute
0253  3008  	MOVLW 0x08
0254  00E8  	MOVWF eepromRead_00000_arg_address
0255  2149  	CALL eepromRead_00000
0256  0869  	MOVF CompTempVarRet550, W
0257  00D8  	MOVWF gbl_gBcdBlueOffHour
0258  3009  	MOVLW 0x09
0259  00E8  	MOVWF eepromRead_00000_arg_address
025A  2149  	CALL eepromRead_00000
025B  0869  	MOVF CompTempVarRet550, W
025C  00D9  	MOVWF gbl_gFanOnTemp
025D  300A  	MOVLW 0x0A
025E  00E8  	MOVWF eepromRead_00000_arg_address
025F  2149  	CALL eepromRead_00000
0260  0869  	MOVF CompTempVarRet550, W
0261  00DA  	MOVWF gbl_gFanOffTemp
0262  300B  	MOVLW 0x0B
0263  00E8  	MOVWF eepromRead_00000_arg_address
0264  2149  	CALL eepromRead_00000
0265  0869  	MOVF CompTempVarRet550, W
0266  00DB  	MOVWF gbl_gHeaterOnTemp
0267  300C  	MOVLW 0x0C
0268  00E8  	MOVWF eepromRead_00000_arg_address
0269  2149  	CALL eepromRead_00000
026A  0869  	MOVF CompTempVarRet550, W
026B  00DC  	MOVWF gbl_gHeaterOffTemp
026C  0008  	RETURN
026D        ; } eepromReadAll function end

	ORG 0x0000026D
026D        ds3231Writ_0001C
026D        ; { ds3231WriteDateTime ; function begin
026D  20F8  	CALL i2c_START_00000
026E  30D0  	MOVLW 0xD0
026F  00EA  	MOVWF i2c_WRITE_00000_arg_i2c_data
0270  2077  	CALL i2c_WRITE_00000
0271  01EA  	CLRF i2c_WRITE_00000_arg_i2c_data
0272  2077  	CALL i2c_WRITE_00000
0273  01EA  	CLRF i2c_WRITE_00000_arg_i2c_data
0274  2077  	CALL i2c_WRITE_00000
0275  0836  	MOVF gbl_gBcdMinute, W
0276  00EA  	MOVWF i2c_WRITE_00000_arg_i2c_data
0277  2077  	CALL i2c_WRITE_00000
0278  0837  	MOVF gbl_gBcdHour, W
0279  00EA  	MOVWF i2c_WRITE_00000_arg_i2c_data
027A  2077  	CALL i2c_WRITE_00000
027B  0838  	MOVF gbl_gDayOfWeek, W
027C  00EA  	MOVWF i2c_WRITE_00000_arg_i2c_data
027D  2077  	CALL i2c_WRITE_00000
027E  0839  	MOVF gbl_gBcdDayOfMonth, W
027F  00EA  	MOVWF i2c_WRITE_00000_arg_i2c_data
0280  2077  	CALL i2c_WRITE_00000
0281  083A  	MOVF gbl_gBcdMonth, W
0282  00EA  	MOVWF i2c_WRITE_00000_arg_i2c_data
0283  2077  	CALL i2c_WRITE_00000
0284  083B  	MOVF gbl_gBcdYear, W
0285  00EA  	MOVWF i2c_WRITE_00000_arg_i2c_data
0286  2077  	CALL i2c_WRITE_00000
0287  20C8  	CALL i2c_STOP_00000
0288  0008  	RETURN
0289        ; } ds3231WriteDateTime function end

	ORG 0x00000289
0289        ds3231Star_0001B
0289        ; { ds3231Start ; function begin
0289  300F  	MOVLW 0x0F
028A  1283  	BCF STATUS, RP0
028B  1303  	BCF STATUS, RP1
028C  00E8  	MOVWF ds3231Writ_0001A_arg_ds3231Reg
028D  01E9  	CLRF ds3231Writ_0001A_arg_bWrite
028E  2151  	CALL ds3231Writ_0001A
028F  0008  	RETURN
0290        ; } ds3231Start function end

	ORG 0x00000290
0290        ds3231Init_00000
0290        ; { ds3231Init ; function begin
0290  300E  	MOVLW 0x0E
0291  1283  	BCF STATUS, RP0
0292  1303  	BCF STATUS, RP1
0293  00E8  	MOVWF ds3231Writ_0001A_arg_ds3231Reg
0294  3080  	MOVLW 0x80
0295  00E9  	MOVWF ds3231Writ_0001A_arg_bWrite
0296  2151  	CALL ds3231Writ_0001A
0297  300F  	MOVLW 0x0F
0298  00E8  	MOVWF ds3231Writ_0001A_arg_ds3231Reg
0299  3080  	MOVLW 0x80
029A  00E9  	MOVWF ds3231Writ_0001A_arg_bWrite
029B  2151  	CALL ds3231Writ_0001A
029C  0008  	RETURN
029D        ; } ds3231Init function end

	ORG 0x0000029D
029D        binToBcd_00000
029D        ; { binToBcd ; function begin
029D  01F0  	CLRF binToBcd_00000_1_iBcd
029E  01F1  	CLRF binToBcd_00000_1_iBcd+D'1'
029F  01F2  	CLRF binToBcd_00000_1_iTest
02A0  3080  	MOVLW 0x80
02A1  00F3  	MOVWF binToBcd_00000_1_iTest+D'1'
02A2  01F4  	CLRF binToBcd_00000_2_i
02A3        label43
02A3  3010  	MOVLW 0x10
02A4  0274  	SUBWF binToBcd_00000_2_i, W
02A5  1803  	BTFSC STATUS,C
02A6  2AFC  	GOTO	label52
02A7  1003  	BCF STATUS,C
02A8  0DF0  	RLF binToBcd_00000_1_iBcd, F
02A9  0DF1  	RLF binToBcd_00000_1_iBcd+D'1', F
02AA  0872  	MOVF binToBcd_00000_1_iTest, W
02AB  056E  	ANDWF binToBcd_00000_arg_iBin, W
02AC  1D03  	BTFSS STATUS,Z
02AD  2AB2  	GOTO	label44
02AE  0873  	MOVF binToBcd_00000_1_iTest+D'1', W
02AF  056F  	ANDWF binToBcd_00000_arg_iBin+D'1', W
02B0  1903  	BTFSC STATUS,Z
02B1  2AB5  	GOTO	label45
02B2        label44
02B2  0AF0  	INCF binToBcd_00000_1_iBcd, F
02B3  1903  	BTFSC STATUS,Z
02B4  0AF1  	INCF binToBcd_00000_1_iBcd+D'1', F
02B5        label45
02B5  300F  	MOVLW 0x0F
02B6  0570  	ANDWF binToBcd_00000_1_iBcd, W
02B7  00F5  	MOVWF CompTempVar577
02B8  01F6  	CLRF CompTempVar578
02B9  0875  	MOVF CompTempVar577, W
02BA  3C04  	SUBLW 0x04
02BB  0876  	MOVF CompTempVar578, W
02BC  1803  	BTFSC STATUS,C
02BD  1D03  	BTFSS STATUS,Z
02BE  1BF6  	BTFSC CompTempVar578,7
02BF  2AC4  	GOTO	label46
02C0  3003  	MOVLW 0x03
02C1  07F0  	ADDWF binToBcd_00000_1_iBcd, F
02C2  1803  	BTFSC STATUS,C
02C3  0AF1  	INCF binToBcd_00000_1_iBcd+D'1', F
02C4        label46
02C4  30F0  	MOVLW 0xF0
02C5  0570  	ANDWF binToBcd_00000_1_iBcd, W
02C6  00F7  	MOVWF CompTempVar579
02C7  01F8  	CLRF CompTempVar580
02C8  0877  	MOVF CompTempVar579, W
02C9  3C49  	SUBLW 0x49
02CA  0878  	MOVF CompTempVar580, W
02CB  1803  	BTFSC STATUS,C
02CC  1D03  	BTFSS STATUS,Z
02CD  1BF8  	BTFSC CompTempVar580,7
02CE  2AD3  	GOTO	label47
02CF  3030  	MOVLW 0x30
02D0  07F0  	ADDWF binToBcd_00000_1_iBcd, F
02D1  1803  	BTFSC STATUS,C
02D2  0AF1  	INCF binToBcd_00000_1_iBcd+D'1', F
02D3        label47
02D3  3000  	MOVLW 0x00
02D4  0570  	ANDWF binToBcd_00000_1_iBcd, W
02D5  00F9  	MOVWF CompTempVar581
02D6  0871  	MOVF binToBcd_00000_1_iBcd+D'1', W
02D7  390F  	ANDLW 0x0F
02D8  00FA  	MOVWF CompTempVar582
02D9  087A  	MOVF CompTempVar582, W
02DA  3C04  	SUBLW 0x04
02DB  1D03  	BTFSS STATUS,Z
02DC  2ADF  	GOTO	label48
02DD  0879  	MOVF CompTempVar581, W
02DE  3C99  	SUBLW 0x99
02DF        label48
02DF  1803  	BTFSC STATUS,C
02E0  2AE5  	GOTO	label49
02E1  1BFA  	BTFSC CompTempVar582,7
02E2  2AE5  	GOTO	label49
02E3  3003  	MOVLW 0x03
02E4  07F1  	ADDWF binToBcd_00000_1_iBcd+D'1', F
02E5        label49
02E5  3000  	MOVLW 0x00
02E6  0570  	ANDWF binToBcd_00000_1_iBcd, W
02E7  00FB  	MOVWF CompTempVar583
02E8  0871  	MOVF binToBcd_00000_1_iBcd+D'1', W
02E9  39F0  	ANDLW 0xF0
02EA  00FC  	MOVWF CompTempVar584
02EB  087C  	MOVF CompTempVar584, W
02EC  3C49  	SUBLW 0x49
02ED  1D03  	BTFSS STATUS,Z
02EE  2AF1  	GOTO	label50
02EF  087B  	MOVF CompTempVar583, W
02F0  3C99  	SUBLW 0x99
02F1        label50
02F1  1803  	BTFSC STATUS,C
02F2  2AF7  	GOTO	label51
02F3  1BFC  	BTFSC CompTempVar584,7
02F4  2AF7  	GOTO	label51
02F5  3030  	MOVLW 0x30
02F6  07F1  	ADDWF binToBcd_00000_1_iBcd+D'1', F
02F7        label51
02F7  0D73  	RLF binToBcd_00000_1_iTest+D'1', W
02F8  0CF3  	RRF binToBcd_00000_1_iTest+D'1', F
02F9  0CF2  	RRF binToBcd_00000_1_iTest, F
02FA  0AF4  	INCF binToBcd_00000_2_i, F
02FB  2AA3  	GOTO	label43
02FC        label52
02FC  0870  	MOVF binToBcd_00000_1_iBcd, W
02FD  00F4  	MOVWF CompTempVarRet576
02FE  0871  	MOVF binToBcd_00000_1_iBcd+D'1', W
02FF  00F5  	MOVWF CompTempVarRet576+D'1'
0300  0008  	RETURN
0301        ; } binToBcd function end

	ORG 0x00000301
0301        bcdTo7Seg_00000
0301        ; { bcdTo7Seg ; function begin
0301  01EE  	CLRF bcdTo7Seg_00000_1_s7SegDisplay
0302  086C  	MOVF bcdTo7Seg_00000_arg_iOffse_0001F, W
0303  00EF  	MOVWF bcdTo7Seg_00000_1_sDigit
0304  0AEC  	INCF bcdTo7Seg_00000_arg_iOffse_0001F, F
0305        label53
0305  086C  	MOVF bcdTo7Seg_00000_arg_iOffse_0001F, W
0306  066F  	XORWF bcdTo7Seg_00000_1_sDigit, W
0307  1D03  	BTFSS STATUS,Z
0308  0008  	RETURN
0309  085E  	MOVF gbl_tm1638DisplayNumtoSeg, W
030A  00F0  	MOVWF __rom_get_00000_arg_objNumb
030B  300F  	MOVLW 0x0F
030C  056B  	ANDWF bcdTo7Seg_00000_arg_iBcdIn, W
030D  00F1  	MOVWF __rom_get_00000_arg_idx
030E  2024  	CALL __rom_get_00000
030F  00EE  	MOVWF bcdTo7Seg_00000_1_s7SegDisplay
0310  086D  	MOVF bcdTo7Seg_00000_arg_iDotPosition, W
0311  066F  	XORWF bcdTo7Seg_00000_1_sDigit, W
0312  118A  	BCF PCLATH,3
0313  120A  	BCF PCLATH,4
0314  1D03  	BTFSS STATUS,Z
0315  2B18  	GOTO	label54
0316  085F  	MOVF gbl_tm1638Dot, W
0317  07EE  	ADDWF bcdTo7Seg_00000_1_s7SegDisplay, F
0318        label54
0318  1383  	BCF	STATUS,IRP
0319  3020  	MOVLW LOW(gbl_tm1638Data+D'0')
031A  0084  	MOVWF FSR
031B  086F  	MOVF bcdTo7Seg_00000_1_sDigit, W
031C  0784  	ADDWF FSR, F
031D  086E  	MOVF bcdTo7Seg_00000_1_s7SegDisplay, W
031E  0080  	MOVWF INDF
031F  0EEB  	SWAPF bcdTo7Seg_00000_arg_iBcdIn, F
0320  300F  	MOVLW 0x0F
0321  05EB  	ANDWF bcdTo7Seg_00000_arg_iBcdIn, F
0322  03EF  	DECF bcdTo7Seg_00000_1_sDigit, F
0323  2B05  	GOTO	label53
0324        ; } bcdTo7Seg function end

	ORG 0x00000324
0324        adjustDate_00023
0324        ; { adjustDateTime ; function begin
0324  0850  	MOVF gbl_gcSetMode, W
0325  3A01  	XORLW 0x01
0326  1903  	BTFSC STATUS,Z
0327  2B38  	GOTO	label55
0328  3A03  	XORLW 0x03
0329  1903  	BTFSC STATUS,Z
032A  2B43  	GOTO	label56
032B  3A01  	XORLW 0x01
032C  1903  	BTFSC STATUS,Z
032D  2B4F  	GOTO	label57
032E  3A07  	XORLW 0x07
032F  1903  	BTFSC STATUS,Z
0330  2B88  	GOTO	label62
0331  3A01  	XORLW 0x01
0332  1903  	BTFSC STATUS,Z
0333  2B93  	GOTO	label63
0334  3A03  	XORLW 0x03
0335  1903  	BTFSC STATUS,Z
0336  2B9D  	GOTO	label64
0337  0008  	RETURN
0338        label55
0338  083B  	MOVF gbl_gBcdYear, W
0339  00EB  	MOVWF bcdAdjust_00000_arg_bcd
033A  3099  	MOVLW 0x99
033B  00EC  	MOVWF bcdAdjust_00000_arg_bcdMax
033C  01ED  	CLRF bcdAdjust_00000_arg_bcdMin
033D  0868  	MOVF adjustDate_00023_arg_iAdjustment, W
033E  00EE  	MOVWF bcdAdjust_00000_arg_iAdjustment
033F  215D  	CALL bcdAdjust_00000
0340  0872  	MOVF CompTempVarRet585, W
0341  00BB  	MOVWF gbl_gBcdYear
0342  0008  	RETURN
0343        label56
0343  083A  	MOVF gbl_gBcdMonth, W
0344  00EB  	MOVWF bcdAdjust_00000_arg_bcd
0345  3012  	MOVLW 0x12
0346  00EC  	MOVWF bcdAdjust_00000_arg_bcdMax
0347  3001  	MOVLW 0x01
0348  00ED  	MOVWF bcdAdjust_00000_arg_bcdMin
0349  0868  	MOVF adjustDate_00023_arg_iAdjustment, W
034A  00EE  	MOVWF bcdAdjust_00000_arg_iAdjustment
034B  215D  	CALL bcdAdjust_00000
034C  0872  	MOVF CompTempVarRet585, W
034D  00BA  	MOVWF gbl_gBcdMonth
034E  0008  	RETURN
034F        label57
034F  0839  	MOVF gbl_gBcdDayOfMonth, W
0350  00E9  	MOVWF adjustDate_00023_1_iMonth
0351  30F0  	MOVLW 0xF0
0352  0569  	ANDWF adjustDate_00023_1_iMonth, W
0353  1903  	BTFSC STATUS,Z
0354  2B5A  	GOTO	label58
0355  0E39  	SWAPF gbl_gBcdDayOfMonth, W
0356  390F  	ANDLW 0x0F
0357  00EB  	MOVWF CompTempVar588
0358  086B  	MOVF CompTempVar588, W
0359  07E9  	ADDWF adjustDate_00023_1_iMonth, F
035A        label58
035A  03E9  	DECF adjustDate_00023_1_iMonth, F
035B  083C  	MOVF gbl_gDaysInMonth, W
035C  00F0  	MOVWF __rom_get_00000_arg_objNumb
035D  0869  	MOVF adjustDate_00023_1_iMonth, W
035E  00F1  	MOVWF __rom_get_00000_arg_idx
035F  2024  	CALL __rom_get_00000
0360  00EA  	MOVWF adjustDate_00023_1_bcdMaxDay
0361  0369  	DECF adjustDate_00023_1_iMonth, W
0362  118A  	BCF PCLATH,3
0363  120A  	BCF PCLATH,4
0364  1D03  	BTFSS STATUS,Z
0365  2B7C  	GOTO	label61
0366  01EB  	CLRF adjustDate_00023_18_i
0367        label59
0367  3018  	MOVLW 0x18
0368  026B  	SUBWF adjustDate_00023_18_i, W
0369  1803  	BTFSC STATUS,C
036A  2B7C  	GOTO	label61
036B  083D  	MOVF gbl_gLeapYears, W
036C  00F0  	MOVWF __rom_get_00000_arg_objNumb
036D  086B  	MOVF adjustDate_00023_18_i, W
036E  00F1  	MOVWF __rom_get_00000_arg_idx
036F  2024  	CALL __rom_get_00000
0370  00EC  	MOVWF CompTempVar589
0371  083B  	MOVF gbl_gBcdYear, W
0372  066C  	XORWF CompTempVar589, W
0373  118A  	BCF PCLATH,3
0374  120A  	BCF PCLATH,4
0375  1D03  	BTFSS STATUS,Z
0376  2B7A  	GOTO	label60
0377  3029  	MOVLW 0x29
0378  00EA  	MOVWF adjustDate_00023_1_bcdMaxDay
0379  2B7C  	GOTO	label61
037A        label60
037A  0AEB  	INCF adjustDate_00023_18_i, F
037B  2B67  	GOTO	label59
037C        label61
037C  0839  	MOVF gbl_gBcdDayOfMonth, W
037D  00EB  	MOVWF bcdAdjust_00000_arg_bcd
037E  086A  	MOVF adjustDate_00023_1_bcdMaxDay, W
037F  00EC  	MOVWF bcdAdjust_00000_arg_bcdMax
0380  3001  	MOVLW 0x01
0381  00ED  	MOVWF bcdAdjust_00000_arg_bcdMin
0382  0868  	MOVF adjustDate_00023_arg_iAdjustment, W
0383  00EE  	MOVWF bcdAdjust_00000_arg_iAdjustment
0384  215D  	CALL bcdAdjust_00000
0385  0872  	MOVF CompTempVarRet585, W
0386  00B9  	MOVWF gbl_gBcdDayOfMonth
0387  0008  	RETURN
0388        label62
0388  0838  	MOVF gbl_gDayOfWeek, W
0389  00EB  	MOVWF bcdAdjust_00000_arg_bcd
038A  3007  	MOVLW 0x07
038B  00EC  	MOVWF bcdAdjust_00000_arg_bcdMax
038C  3001  	MOVLW 0x01
038D  00ED  	MOVWF bcdAdjust_00000_arg_bcdMin
038E  0868  	MOVF adjustDate_00023_arg_iAdjustment, W
038F  00EE  	MOVWF bcdAdjust_00000_arg_iAdjustment
0390  215D  	CALL bcdAdjust_00000
0391  0872  	MOVF CompTempVarRet585, W
0392  00B8  	MOVWF gbl_gDayOfWeek
0393        label63
0393  0837  	MOVF gbl_gBcdHour, W
0394  00EB  	MOVWF bcdAdjust_00000_arg_bcd
0395  3023  	MOVLW 0x23
0396  00EC  	MOVWF bcdAdjust_00000_arg_bcdMax
0397  01ED  	CLRF bcdAdjust_00000_arg_bcdMin
0398  0868  	MOVF adjustDate_00023_arg_iAdjustment, W
0399  00EE  	MOVWF bcdAdjust_00000_arg_iAdjustment
039A  215D  	CALL bcdAdjust_00000
039B  0872  	MOVF CompTempVarRet585, W
039C  00B7  	MOVWF gbl_gBcdHour
039D        label64
039D  0836  	MOVF gbl_gBcdMinute, W
039E  00EB  	MOVWF bcdAdjust_00000_arg_bcd
039F  3059  	MOVLW 0x59
03A0  00EC  	MOVWF bcdAdjust_00000_arg_bcdMax
03A1  01ED  	CLRF bcdAdjust_00000_arg_bcdMin
03A2  0868  	MOVF adjustDate_00023_arg_iAdjustment, W
03A3  00EE  	MOVWF bcdAdjust_00000_arg_iAdjustment
03A4  215D  	CALL bcdAdjust_00000
03A5  0872  	MOVF CompTempVarRet585, W
03A6  00B6  	MOVWF gbl_gBcdMinute
03A7  0008  	RETURN
03A8        ; } adjustDateTime function end

	ORG 0x000003A8
03A8        __mul_16s__0000F
03A8        ; { __mul_16s_16s__16 ; function begin
03A8  01F2  	CLRF __mul_16s__0000F_1_i
03A9  01F5  	CLRF CompTempVarRet386
03AA  01F6  	CLRF CompTempVarRet386+D'1'
03AB  1283  	BCF STATUS, RP0
03AC  1303  	BCF STATUS, RP1
03AD  086E  	MOVF __mul_16s__0000F_arg_a, W
03AE  00F3  	MOVWF __mul_16s__0000F_1_t
03AF  086F  	MOVF __mul_16s__0000F_arg_a+D'1', W
03B0  00F4  	MOVWF __mul_16s__0000F_1_t+D'1'
03B1  1FF1  	BTFSS __mul_16s__0000F_arg_b+D'1',7
03B2  2BB9  	GOTO	label65
03B3  17F2  	BSF __mul_16s__0000F_1_i,7
03B4  09F0  	COMF __mul_16s__0000F_arg_b, F
03B5  09F1  	COMF __mul_16s__0000F_arg_b+D'1', F
03B6  0AF0  	INCF __mul_16s__0000F_arg_b, F
03B7  1903  	BTFSC gbl_status,2
03B8  0AF1  	INCF __mul_16s__0000F_arg_b+D'1', F
03B9        label65
03B9  1A72  	BTFSC __mul_16s__0000F_1_i,4
03BA  2BCB  	GOTO	label67
03BB  1C70  	BTFSS __mul_16s__0000F_arg_b,0
03BC  2BC3  	GOTO	label66
03BD  0873  	MOVF __mul_16s__0000F_1_t, W
03BE  07F5  	ADDWF CompTempVarRet386, F
03BF  0874  	MOVF __mul_16s__0000F_1_t+D'1', W
03C0  1803  	BTFSC gbl_status,0
03C1  0F74  	INCFSZ __mul_16s__0000F_1_t+D'1', W
03C2  07F6  	ADDWF CompTempVarRet386+D'1', F
03C3        label66
03C3  1003  	BCF gbl_status,0
03C4  0CF1  	RRF __mul_16s__0000F_arg_b+D'1', F
03C5  0CF0  	RRF __mul_16s__0000F_arg_b, F
03C6  1003  	BCF gbl_status,0
03C7  0DF3  	RLF __mul_16s__0000F_1_t, F
03C8  0DF4  	RLF __mul_16s__0000F_1_t+D'1', F
03C9  0AF2  	INCF __mul_16s__0000F_1_i, F
03CA  2BB9  	GOTO	label65
03CB        label67
03CB  1FF2  	BTFSS __mul_16s__0000F_1_i,7
03CC  0008  	RETURN
03CD  09F5  	COMF CompTempVarRet386, F
03CE  09F6  	COMF CompTempVarRet386+D'1', F
03CF  0AF5  	INCF CompTempVarRet386, F
03D0  1903  	BTFSC gbl_status,2
03D1  0AF6  	INCF CompTempVarRet386+D'1', F
03D2  0008  	RETURN
03D3        ; } __mul_16s_16s__16 function end

	ORG 0x000003D3
03D3        tm1638Upda_00020
03D3        ; { tm1638UpdateDisplay ; function begin
03D3  1283  	BCF STATUS, RP0
03D4  1303  	BCF STATUS, RP1
03D5  08CF  	MOVF gbl_gcDisplayMode, F
03D6  1D03  	BTFSS STATUS,Z
03D7  2C09  	GOTO	label69
03D8  08D0  	MOVF gbl_gcSetMode, F
03D9  1D03  	BTFSS STATUS,Z
03DA  2C09  	GOTO	label69
03DB  3001  	MOVLW 0x01
03DC  00EA  	MOVWF tm1638Upda_00020_4_iDotPosition
03DD  08CC  	MOVF gbl_gbDS3231IsMinus, F
03DE  1903  	BTFSC STATUS,Z
03DF  2BF2  	GOTO	label68
03E0  30F0  	MOVLW 0xF0
03E1  0534  	ANDWF gbl_giDS3231ValueBCD+D'1', W
03E2  1903  	BTFSC STATUS,Z
03E3  2BF2  	GOTO	label68
03E4  0D34  	RLF gbl_giDS3231ValueBCD+D'1', W
03E5  0CB4  	RRF gbl_giDS3231ValueBCD+D'1', F
03E6  0CB3  	RRF gbl_giDS3231ValueBCD, F
03E7  0D34  	RLF gbl_giDS3231ValueBCD+D'1', W
03E8  0CB4  	RRF gbl_giDS3231ValueBCD+D'1', F
03E9  0CB3  	RRF gbl_giDS3231ValueBCD, F
03EA  0D34  	RLF gbl_giDS3231ValueBCD+D'1', W
03EB  0CB4  	RRF gbl_giDS3231ValueBCD+D'1', F
03EC  0CB3  	RRF gbl_giDS3231ValueBCD, F
03ED  0D34  	RLF gbl_giDS3231ValueBCD+D'1', W
03EE  0CB4  	RRF gbl_giDS3231ValueBCD+D'1', F
03EF  0CB3  	RRF gbl_giDS3231ValueBCD, F
03F0  3002  	MOVLW 0x02
03F1  00EA  	MOVWF tm1638Upda_00020_4_iDotPosition
03F2        label68
03F2  0833  	MOVF gbl_giDS3231ValueBCD, W
03F3  00EB  	MOVWF bcdTo7Seg_00000_arg_iBcdIn
03F4  3002  	MOVLW 0x02
03F5  00EC  	MOVWF bcdTo7Seg_00000_arg_iOffse_0001F
03F6  3003  	MOVLW 0x03
03F7  00ED  	MOVWF bcdTo7Seg_00000_arg_iDotPosition
03F8  2301  	CALL bcdTo7Seg_00000
03F9  0834  	MOVF gbl_giDS3231ValueBCD+D'1', W
03FA  00EB  	MOVWF bcdTo7Seg_00000_arg_iBcdIn
03FB  01EC  	CLRF bcdTo7Seg_00000_arg_iOffse_0001F
03FC  086A  	MOVF tm1638Upda_00020_4_iDotPosition, W
03FD  00ED  	MOVWF bcdTo7Seg_00000_arg_iDotPosition
03FE  2301  	CALL bcdTo7Seg_00000
03FF  0820  	MOVF gbl_tm1638Data, W
0400  3A3F  	XORLW 0x3F
0401  1903  	BTFSC STATUS,Z
0402  01A0  	CLRF gbl_tm1638Data
0403  08CC  	MOVF gbl_gbDS3231IsMinus, F
0404  1903  	BTFSC STATUS,Z
0405  2C58  	GOTO	label78
0406  3040  	MOVLW 0x40
0407  00A0  	MOVWF gbl_tm1638Data
0408  2C58  	GOTO	label78
0409        label69
0409  0350  	DECF gbl_gcSetMode, W
040A  1D03  	BTFSS STATUS,Z
040B  2C1C  	GOTO	label70
040C  3003  	MOVLW 0x03
040D  00C8  	MOVWF gbl_iDigitToFlash
040E  3020  	MOVLW 0x20
040F  00EB  	MOVWF bcdTo7Seg_00000_arg_iBcdIn
0410  01EC  	CLRF bcdTo7Seg_00000_arg_iOffse_0001F
0411  3001  	MOVLW 0x01
0412  00ED  	MOVWF bcdTo7Seg_00000_arg_iDotPosition
0413  2301  	CALL bcdTo7Seg_00000
0414  083B  	MOVF gbl_gBcdYear, W
0415  00EB  	MOVWF bcdTo7Seg_00000_arg_iBcdIn
0416  3002  	MOVLW 0x02
0417  00EC  	MOVWF bcdTo7Seg_00000_arg_iOffse_0001F
0418  3003  	MOVLW 0x03
0419  00ED  	MOVWF bcdTo7Seg_00000_arg_iDotPosition
041A  2301  	CALL bcdTo7Seg_00000
041B  2C58  	GOTO	label78
041C        label70
041C  0850  	MOVF gbl_gcSetMode, W
041D  3A04  	XORLW 0x04
041E  1D03  	BTFSS STATUS,Z
041F  2C2F  	GOTO	label71
0420  3003  	MOVLW 0x03
0421  00C8  	MOVWF gbl_iDigitToFlash
0422  01A0  	CLRF gbl_tm1638Data
0423  01A1  	CLRF gbl_tm1638Data+D'1'
0424  01A2  	CLRF gbl_tm1638Data+D'2'
0425  085E  	MOVF gbl_tm1638DisplayNumtoSeg, W
0426  00F0  	MOVWF __rom_get_00000_arg_objNumb
0427  0838  	MOVF gbl_gDayOfWeek, W
0428  00F1  	MOVWF __rom_get_00000_arg_idx
0429  2024  	CALL __rom_get_00000
042A  075F  	ADDWF gbl_tm1638Dot, W
042B  00A3  	MOVWF gbl_tm1638Data+D'3'
042C  118A  	BCF PCLATH,3
042D  120A  	BCF PCLATH,4
042E  2C58  	GOTO	label78
042F        label71
042F  0850  	MOVF gbl_gcSetMode, W
0430  3A02  	XORLW 0x02
0431  1903  	BTFSC STATUS,Z
0432  2C3D  	GOTO	label72
0433  3A01  	XORLW 0x01
0434  1903  	BTFSC STATUS,Z
0435  2C40  	GOTO	label73
0436  3A06  	XORLW 0x06
0437  1903  	BTFSC STATUS,Z
0438  2C43  	GOTO	label74
0439  3A03  	XORLW 0x03
043A  1903  	BTFSC STATUS,Z
043B  2C46  	GOTO	label75
043C  2C49  	GOTO	label76
043D        label72
043D  3003  	MOVLW 0x03
043E  00C8  	MOVWF gbl_iDigitToFlash
043F  2C4B  	GOTO	label77
0440        label73
0440  3001  	MOVLW 0x01
0441  00C8  	MOVWF gbl_iDigitToFlash
0442  2C4B  	GOTO	label77
0443        label74
0443  3005  	MOVLW 0x05
0444  00C8  	MOVWF gbl_iDigitToFlash
0445  2C4B  	GOTO	label77
0446        label75
0446  3007  	MOVLW 0x07
0447  00C8  	MOVWF gbl_iDigitToFlash
0448  2C4B  	GOTO	label77
0449        label76
0449  3008  	MOVLW 0x08
044A  00C8  	MOVWF gbl_iDigitToFlash
044B        label77
044B  0839  	MOVF gbl_gBcdDayOfMonth, W
044C  00EB  	MOVWF bcdTo7Seg_00000_arg_iBcdIn
044D  01EC  	CLRF bcdTo7Seg_00000_arg_iOffse_0001F
044E  3001  	MOVLW 0x01
044F  00ED  	MOVWF bcdTo7Seg_00000_arg_iDotPosition
0450  2301  	CALL bcdTo7Seg_00000
0451  083A  	MOVF gbl_gBcdMonth, W
0452  00EB  	MOVWF bcdTo7Seg_00000_arg_iBcdIn
0453  3002  	MOVLW 0x02
0454  00EC  	MOVWF bcdTo7Seg_00000_arg_iOffse_0001F
0455  3003  	MOVLW 0x03
0456  00ED  	MOVWF bcdTo7Seg_00000_arg_iDotPosition
0457  2301  	CALL bcdTo7Seg_00000
0458        label78
0458  0837  	MOVF gbl_gBcdHour, W
0459  00EB  	MOVWF bcdTo7Seg_00000_arg_iBcdIn
045A  3004  	MOVLW 0x04
045B  00EC  	MOVWF bcdTo7Seg_00000_arg_iOffse_0001F
045C  3005  	MOVLW 0x05
045D  00ED  	MOVWF bcdTo7Seg_00000_arg_iDotPosition
045E  2301  	CALL bcdTo7Seg_00000
045F  0836  	MOVF gbl_gBcdMinute, W
0460  00EB  	MOVWF bcdTo7Seg_00000_arg_iBcdIn
0461  3006  	MOVLW 0x06
0462  00EC  	MOVWF bcdTo7Seg_00000_arg_iOffse_0001F
0463  3008  	MOVLW 0x08
0464  00ED  	MOVWF bcdTo7Seg_00000_arg_iDotPosition
0465  2301  	CALL bcdTo7Seg_00000
0466  3002  	MOVLW 0x02
0467  00E9  	MOVWF tm1638Upda_00020_3_i
0468        label79
0468  3008  	MOVLW 0x08
0469  0269  	SUBWF tm1638Upda_00020_3_i, W
046A  1803  	BTFSC STATUS,C
046B  2C89  	GOTO	label82
046C  01EB  	CLRF CompTempVar564
046D  3002  	MOVLW 0x02
046E  0750  	ADDWF gbl_gcSetMode, W
046F  00EA  	MOVWF CompTempVar563
0470  1803  	BTFSC STATUS,C
0471  0AEB  	INCF CompTempVar564, F
0472  0869  	MOVF tm1638Upda_00020_3_i, W
0473  066A  	XORWF CompTempVar563, W
0474  1903  	BTFSC STATUS,Z
0475  086B  	MOVF CompTempVar564, W
0476  1D03  	BTFSS STATUS,Z
0477  2C80  	GOTO	label80
0478  1383  	BCF	STATUS,IRP
0479  3028  	MOVLW LOW(gbl_tm1638LEDs+D'0')
047A  0084  	MOVWF FSR
047B  0869  	MOVF tm1638Upda_00020_3_i, W
047C  0784  	ADDWF FSR, F
047D  3001  	MOVLW 0x01
047E  0080  	MOVWF INDF
047F  2C87  	GOTO	label81
0480        label80
0480  1383  	BCF	STATUS,IRP
0481  3028  	MOVLW LOW(gbl_tm1638LEDs+D'0')
0482  0084  	MOVWF FSR
0483  0869  	MOVF tm1638Upda_00020_3_i, W
0484  0784  	ADDWF FSR, F
0485  3000  	MOVLW 0x00
0486  0080  	MOVWF INDF
0487        label81
0487  0AE9  	INCF tm1638Upda_00020_3_i, F
0488  2C68  	GOTO	label79
0489        label82
0489  01A8  	CLRF gbl_tm1638LEDs
048A  19CE  	BTFSC gbl_gbHeaterOn,3
048B  0AA8  	INCF gbl_tm1638LEDs, F
048C  01A9  	CLRF gbl_tm1638LEDs+D'1'
048D  194E  	BTFSC gbl_gbFanOn,2
048E  0AA9  	INCF gbl_tm1638LEDs+D'1', F
048F  1385  	BCF gbl_porta,7
0490  0861  	MOVF gbl_tm1638ByteSetData, W
0491  00EA  	MOVWF tm1638Byte_0001E_arg_bWrite
0492  2189  	CALL tm1638Byte_0001E
0493  1785  	BSF gbl_porta,7
0494  1385  	BCF gbl_porta,7
0495  0863  	MOVF gbl_tm1638ByteSetAddr, W
0496  00EA  	MOVWF tm1638Byte_0001E_arg_bWrite
0497  2189  	CALL tm1638Byte_0001E
0498  01E8  	CLRF tm1638Upda_00020_2_i
0499        label83
0499  085D  	MOVF gbl_tm1638MaxDigits, W
049A  0268  	SUBWF tm1638Upda_00020_2_i, W
049B  1803  	BTFSC STATUS,C
049C  2CB8  	GOTO	label86
049D  1C3F  	BTFSS gbl_iFlashDigitOff,0
049E  2CA6  	GOTO	label84
049F  0848  	MOVF gbl_iDigitToFlash, W
04A0  0668  	XORWF tm1638Upda_00020_2_i, W
04A1  1D03  	BTFSS STATUS,Z
04A2  2CA6  	GOTO	label84
04A3  01EA  	CLRF tm1638Byte_0001E_arg_bWrite
04A4  2189  	CALL tm1638Byte_0001E
04A5  2CAE  	GOTO	label85
04A6        label84
04A6  1383  	BCF	STATUS,IRP
04A7  3020  	MOVLW LOW(gbl_tm1638Data+D'0')
04A8  0084  	MOVWF FSR
04A9  0868  	MOVF tm1638Upda_00020_2_i, W
04AA  0784  	ADDWF FSR, F
04AB  0800  	MOVF INDF, W
04AC  00EA  	MOVWF tm1638Byte_0001E_arg_bWrite
04AD  2189  	CALL tm1638Byte_0001E
04AE        label85
04AE  1383  	BCF	STATUS,IRP
04AF  3028  	MOVLW LOW(gbl_tm1638LEDs+D'0')
04B0  0084  	MOVWF FSR
04B1  0868  	MOVF tm1638Upda_00020_2_i, W
04B2  0784  	ADDWF FSR, F
04B3  0800  	MOVF INDF, W
04B4  00EA  	MOVWF tm1638Byte_0001E_arg_bWrite
04B5  2189  	CALL tm1638Byte_0001E
04B6  0AE8  	INCF tm1638Upda_00020_2_i, F
04B7  2C99  	GOTO	label83
04B8        label86
04B8  1785  	BSF gbl_porta,7
04B9  0008  	RETURN
04BA        ; } tm1638UpdateDisplay function end

	ORG 0x000004BA
04BA        tm1638Read_00021
04BA        ; { tm1638ReadKeys ; function begin
04BA  1283  	BCF STATUS, RP0
04BB  1303  	BCF STATUS, RP1
04BC  1385  	BCF gbl_porta,7
04BD  0862  	MOVF gbl_tm1638ByteReadData, W
04BE  00EA  	MOVWF tm1638Byte_0001E_arg_bWrite
04BF  2189  	CALL tm1638Byte_0001E
04C0  1683  	BSF STATUS, RP0
04C1  1485  	BSF gbl_trisa,1
04C2  3020  	MOVLW 0x20
04C3  1283  	BCF STATUS, RP0
04C4  00E8  	MOVWF tm1638Read_00021_1_tm1638K_00022
04C5  01E9  	CLRF tm1638Read_00021_2_i
04C6        label87
04C6  3020  	MOVLW 0x20
04C7  0269  	SUBWF tm1638Read_00021_2_i, W
04C8  1803  	BTFSC STATUS,C
04C9  2CD7  	GOTO	label89
04CA  03E8  	DECF tm1638Read_00021_1_tm1638K_00022, F
04CB  1005  	BCF gbl_porta,0
04CC  3001  	MOVLW 0x01
04CD  00ED  	MOVWF delay_us_00000_arg_del
04CE  2010  	CALL delay_us_00000
04CF  1C85  	BTFSS gbl_porta,1
04D0  2CD4  	GOTO	label88
04D1  08E8  	MOVF tm1638Read_00021_1_tm1638K_00022, F
04D2  1003  	BCF STATUS,C
04D3  0DE8  	RLF tm1638Read_00021_1_tm1638K_00022, F
04D4        label88
04D4  1405  	BSF gbl_porta,0
04D5  0AE9  	INCF tm1638Read_00021_2_i, F
04D6  2CC6  	GOTO	label87
04D7        label89
04D7  1683  	BSF STATUS, RP0
04D8  1085  	BCF gbl_trisa,1
04D9  1283  	BCF STATUS, RP0
04DA  1785  	BSF gbl_porta,7
04DB  0868  	MOVF tm1638Read_00021_1_tm1638K_00022, W
04DC  00E5  	MOVWF gbl_tm1638Keys
04DD  0008  	RETURN
04DE        ; } tm1638ReadKeys function end

	ORG 0x000004DE
04DE        startTemp_00000
04DE        ; { startTemp ; function begin
04DE  30CC  	MOVLW 0xCC
04DF  1283  	BCF STATUS, RP0
04E0  1303  	BCF STATUS, RP1
04E1  00E8  	MOVWF oneWireTxB_00015_arg_cData
04E2  3044  	MOVLW 0x44
04E3  00E9  	MOVWF oneWireTxB_00015_arg_cData2
04E4  219C  	CALL oneWireTxB_00015
04E5  0008  	RETURN
04E6        ; } startTemp function end

	ORG 0x000004E6
04E6        readTemp_00000
04E6        ; { readTemp ; function begin
04E6  30CC  	MOVLW 0xCC
04E7  1283  	BCF STATUS, RP0
04E8  1303  	BCF STATUS, RP1
04E9  00E8  	MOVWF oneWireTxB_00015_arg_cData
04EA  30BE  	MOVLW 0xBE
04EB  00E9  	MOVWF oneWireTxB_00015_arg_cData2
04EC  219C  	CALL oneWireTxB_00015
04ED  21A3  	CALL oneWireRxB_00016
04EE  0869  	MOVF CompTempVarRet548, W
04EF  00CA  	MOVWF gbl_cTempL
04F0  21A3  	CALL oneWireRxB_00016
04F1  0869  	MOVF CompTempVarRet548, W
04F2  00C9  	MOVWF gbl_cTempH
04F3  0008  	RETURN
04F4        ; } readTemp function end

	ORG 0x000004F4
04F4        processKey_00024
04F4        ; { processKeys ; function begin
04F4  1283  	BCF STATUS, RP0
04F5  1303  	BCF STATUS, RP1
04F6  0865  	MOVF gbl_tm1638Keys, W
04F7  3A01  	XORLW 0x01
04F8  1903  	BTFSC STATUS,Z
04F9  2D10  	GOTO	label90
04FA  3A03  	XORLW 0x03
04FB  1903  	BTFSC STATUS,Z
04FC  2D18  	GOTO	label91
04FD  3A01  	XORLW 0x01
04FE  1903  	BTFSC STATUS,Z
04FF  2D20  	GOTO	label92
0500  3A07  	XORLW 0x07
0501  1903  	BTFSC STATUS,Z
0502  2D28  	GOTO	label93
0503  3A01  	XORLW 0x01
0504  1903  	BTFSC STATUS,Z
0505  2D2E  	GOTO	label94
0506  3A03  	XORLW 0x03
0507  1903  	BTFSC STATUS,Z
0508  2D36  	GOTO	label95
0509  3A01  	XORLW 0x01
050A  1903  	BTFSC STATUS,Z
050B  2D3D  	GOTO	label96
050C  3A0F  	XORLW 0x0F
050D  1903  	BTFSC STATUS,Z
050E  0008  	RETURN
050F  0008  	RETURN
0510        label90
0510  01E8  	CLRF CompTempVar590
0511  1C4E  	BTFSS gbl_gbWhiteOn,0
0512  0AE8  	INCF CompTempVar590, F
0513  104E  	BCF gbl_gbWhiteOn,0
0514  0868  	MOVF CompTempVar590, W
0515  1D03  	BTFSS STATUS,Z
0516  144E  	BSF gbl_gbWhiteOn,0
0517  0008  	RETURN
0518        label91
0518  01E8  	CLRF CompTempVar591
0519  1CCE  	BTFSS gbl_gbBlueOn,1
051A  0AE8  	INCF CompTempVar591, F
051B  10CE  	BCF gbl_gbBlueOn,1
051C  0868  	MOVF CompTempVar591, W
051D  1D03  	BTFSS STATUS,Z
051E  14CE  	BSF gbl_gbBlueOn,1
051F  0008  	RETURN
0520        label92
0520  01E8  	CLRF CompTempVar592
0521  1D4E  	BTFSS gbl_gbFanOn,2
0522  0AE8  	INCF CompTempVar592, F
0523  114E  	BCF gbl_gbFanOn,2
0524  0868  	MOVF CompTempVar592, W
0525  1D03  	BTFSS STATUS,Z
0526  154E  	BSF gbl_gbFanOn,2
0527  0008  	RETURN
0528        label93
0528  0ACF  	INCF gbl_gcDisplayMode, F
0529  084F  	MOVF gbl_gcDisplayMode, W
052A  3C02  	SUBLW 0x02
052B  1C03  	BTFSS STATUS,C
052C  01CF  	CLRF gbl_gcDisplayMode
052D  0008  	RETURN
052E        label94
052E  0AD0  	INCF gbl_gcSetMode, F
052F  0850  	MOVF gbl_gcSetMode, W
0530  3C06  	SUBLW 0x06
0531  1803  	BTFSC STATUS,C
0532  0008  	RETURN
0533  226D  	CALL ds3231Writ_0001C
0534  01D0  	CLRF gbl_gcSetMode
0535  0008  	RETURN
0536        label95
0536  0850  	MOVF gbl_gcSetMode, W
0537  3C00  	SUBLW 0x00
0538  1803  	BTFSC STATUS,C
0539  0008  	RETURN
053A  01E8  	CLRF adjustDate_00023_arg_iAdjustment
053B  2324  	CALL adjustDate_00023
053C  0008  	RETURN
053D        label96
053D  0850  	MOVF gbl_gcSetMode, W
053E  3C00  	SUBLW 0x00
053F  1803  	BTFSC STATUS,C
0540  0008  	RETURN
0541  3001  	MOVLW 0x01
0542  00E8  	MOVWF adjustDate_00023_arg_iAdjustment
0543  2324  	CALL adjustDate_00023
0544  0008  	RETURN
0545        ; } processKeys function end

	ORG 0x00000545
0545        oneWireBus_00013
0545        ; { oneWireBusReset ; function begin
0545  1683  	BSF STATUS, RP0
0546  1303  	BCF STATUS, RP1
0547  1705  	BSF gbl_trisa,6
0548  1283  	BCF STATUS, RP0
0549  01E8  	CLRF oneWireBus_00013_1_isPresent
054A  1305  	BCF gbl_porta,6
054B  1683  	BSF STATUS, RP0
054C  1305  	BCF gbl_trisa,6
054D  3032  	MOVLW 0x32
054E  1283  	BCF STATUS, RP0
054F  00ED  	MOVWF delay_10us_00000_arg_del
0550  201A  	CALL delay_10us_00000
0551  1683  	BSF STATUS, RP0
0552  1705  	BSF gbl_trisa,6
0553  3007  	MOVLW 0x07
0554  1283  	BCF STATUS, RP0
0555  00ED  	MOVWF delay_10us_00000_arg_del
0556  201A  	CALL delay_10us_00000
0557  1B05  	BTFSC gbl_porta,6
0558  01E6  	CLRF gbl_oneWireIsPresent
0559  3032  	MOVLW 0x32
055A  00ED  	MOVWF delay_10us_00000_arg_del
055B  201A  	CALL delay_10us_00000
055C  0008  	RETURN
055D        ; } oneWireBusReset function end

	ORG 0x0000055D
055D        initialise_00000
055D        ; { initialise ; function begin
055D  1683  	BSF STATUS, RP0
055E  1303  	BCF STATUS, RP1
055F  158E  	BSF gbl_pcon,3
0560  300C  	MOVLW 0x0C
0561  0085  	MOVWF gbl_trisa
0562  1283  	BCF STATUS, RP0
0563  0185  	CLRF gbl_porta
0564  1683  	BSF STATUS, RP0
0565  0186  	CLRF gbl_trisb
0566  1283  	BCF STATUS, RP0
0567  0186  	CLRF gbl_portb
0568  1683  	BSF STATUS, RP0
0569  0181  	CLRF gbl_option_reg
056A  1781  	BSF gbl_option_reg,7
056B  3007  	MOVLW 0x07
056C  1283  	BCF STATUS, RP0
056D  009F  	MOVWF gbl_cmcon
056E  3006  	MOVLW 0x06
056F  0090  	MOVWF gbl_t1con
0570  30FF  	MOVLW 0xFF
0571  008F  	MOVWF gbl_tmr1h
0572  008E  	MOVWF gbl_tmr1l
0573  1683  	BSF STATUS, RP0
0574  140C  	BSF gbl_pie1,0
0575  3078  	MOVLW 0x78
0576  1283  	BCF STATUS, RP0
0577  0492  	IORWF gbl_t2con, F
0578  1512  	BSF gbl_t2con,2
0579  1492  	BSF gbl_t2con,1
057A  30C3  	MOVLW 0xC3
057B  1683  	BSF STATUS, RP0
057C  0092  	MOVWF gbl_pr2
057D  1283  	BCF STATUS, RP0
057E  01CD  	CLRF gbl_cTask
057F  178B  	BSF gbl_intcon,7
0580  170B  	BSF gbl_intcon,6
0581  2228  	CALL eepromRead_00019
0582  3001  	MOVLW 0x01
0583  00E8  	MOVWF i2c_INIT_00000_arg_i2c_divisor
0584  2215  	CALL i2c_INIT_00000
0585  2290  	CALL ds3231Init_00000
0586  226D  	CALL ds3231Writ_0001C
0587  2289  	CALL ds3231Star_0001B
0588  0008  	RETURN
0589        ; } initialise function end

	ORG 0x00000589
0589        ds3231Read_0001D
0589        ; { ds3231ReadDateTime ; function begin
0589  20F8  	CALL i2c_START_00000
058A  30D0  	MOVLW 0xD0
058B  00EA  	MOVWF i2c_WRITE_00000_arg_i2c_data
058C  2077  	CALL i2c_WRITE_00000
058D  01EA  	CLRF i2c_WRITE_00000_arg_i2c_data
058E  2077  	CALL i2c_WRITE_00000
058F  20C8  	CALL i2c_STOP_00000
0590  20F8  	CALL i2c_START_00000
0591  30D1  	MOVLW 0xD1
0592  00EA  	MOVWF i2c_WRITE_00000_arg_i2c_data
0593  2077  	CALL i2c_WRITE_00000
0594  01E8  	CLRF i2c_READ_00000_arg_ack_status
0595  21C1  	CALL i2c_READ_00000
0596  086B  	MOVF CompTempVarRet552, W
0597  00B5  	MOVWF gbl_gBcdSeconds
0598  01E8  	CLRF i2c_READ_00000_arg_ack_status
0599  21C1  	CALL i2c_READ_00000
059A  086B  	MOVF CompTempVarRet552, W
059B  00B6  	MOVWF gbl_gBcdMinute
059C  01E8  	CLRF i2c_READ_00000_arg_ack_status
059D  21C1  	CALL i2c_READ_00000
059E  086B  	MOVF CompTempVarRet552, W
059F  00B7  	MOVWF gbl_gBcdHour
05A0  01E8  	CLRF i2c_READ_00000_arg_ack_status
05A1  21C1  	CALL i2c_READ_00000
05A2  086B  	MOVF CompTempVarRet552, W
05A3  00B8  	MOVWF gbl_gDayOfWeek
05A4  01E8  	CLRF i2c_READ_00000_arg_ack_status
05A5  21C1  	CALL i2c_READ_00000
05A6  086B  	MOVF CompTempVarRet552, W
05A7  00B9  	MOVWF gbl_gBcdDayOfMonth
05A8  01E8  	CLRF i2c_READ_00000_arg_ack_status
05A9  21C1  	CALL i2c_READ_00000
05AA  086B  	MOVF CompTempVarRet552, W
05AB  00BA  	MOVWF gbl_gBcdMonth
05AC  3001  	MOVLW 0x01
05AD  00E8  	MOVWF i2c_READ_00000_arg_ack_status
05AE  21C1  	CALL i2c_READ_00000
05AF  086B  	MOVF CompTempVarRet552, W
05B0  00BB  	MOVWF gbl_gBcdYear
05B1  20C8  	CALL i2c_STOP_00000
05B2  0008  	RETURN
05B3        ; } ds3231ReadDateTime function end

	ORG 0x000005B3
05B3        convertTem_00025
05B3        ; { convertTemp ; function begin
05B3  1283  	BCF STATUS, RP0
05B4  1303  	BCF STATUS, RP1
05B5  01E8  	CLRF convertTem_00025_1_iTemp
05B6  0849  	MOVF gbl_cTempH, W
05B7  00E9  	MOVWF convertTem_00025_1_iTemp+D'1'
05B8  084A  	MOVF gbl_cTempL, W
05B9  04E8  	IORWF convertTem_00025_1_iTemp, F
05BA  01CC  	CLRF gbl_gbDS3231IsMinus
05BB  1BE9  	BTFSC convertTem_00025_1_iTemp+D'1',7
05BC  0ACC  	INCF gbl_gbDS3231IsMinus, F
05BD  08CC  	MOVF gbl_gbDS3231IsMinus, F
05BE  1903  	BTFSC STATUS,Z
05BF  2DC5  	GOTO	label97
05C0  09E8  	COMF convertTem_00025_1_iTemp, F
05C1  09E9  	COMF convertTem_00025_1_iTemp+D'1', F
05C2  0AE8  	INCF convertTem_00025_1_iTemp, F
05C3  1903  	BTFSC STATUS,Z
05C4  0AE9  	INCF convertTem_00025_1_iTemp+D'1', F
05C5        label97
05C5  3006  	MOVLW 0x06
05C6  00EE  	MOVWF __mul_16s__0000F_arg_a
05C7  01EF  	CLRF __mul_16s__0000F_arg_a+D'1'
05C8  0868  	MOVF convertTem_00025_1_iTemp, W
05C9  00F0  	MOVWF __mul_16s__0000F_arg_b
05CA  0869  	MOVF convertTem_00025_1_iTemp+D'1', W
05CB  00F1  	MOVWF __mul_16s__0000F_arg_b+D'1'
05CC  23A8  	CALL __mul_16s__0000F
05CD  0875  	MOVF CompTempVarRet386, W
05CE  00EA  	MOVWF convertTem_00025_1_iValue
05CF  0876  	MOVF CompTempVarRet386+D'1', W
05D0  00ED  	MOVWF CompTempVar600
05D1  0868  	MOVF convertTem_00025_1_iTemp, W
05D2  00EC  	MOVWF CompTempVar597
05D3  0869  	MOVF convertTem_00025_1_iTemp+D'1', W
05D4  00EB  	MOVWF convertTem_00025_1_iValue+D'1'
05D5  0D69  	RLF convertTem_00025_1_iTemp+D'1', W
05D6  0CEB  	RRF convertTem_00025_1_iValue+D'1', F
05D7  0CEC  	RRF CompTempVar597, F
05D8  0D69  	RLF convertTem_00025_1_iTemp+D'1', W
05D9  0CEB  	RRF convertTem_00025_1_iValue+D'1', F
05DA  0CEC  	RRF CompTempVar597, F
05DB  086C  	MOVF CompTempVar597, W
05DC  07EA  	ADDWF convertTem_00025_1_iValue, F
05DD  086D  	MOVF CompTempVar600, W
05DE  1803  	BTFSC STATUS,C
05DF  0AEB  	INCF convertTem_00025_1_iValue+D'1', F
05E0  07EB  	ADDWF convertTem_00025_1_iValue+D'1', F
05E1  086A  	MOVF convertTem_00025_1_iValue, W
05E2  00EE  	MOVWF binToBcd_00000_arg_iBin
05E3  086B  	MOVF convertTem_00025_1_iValue+D'1', W
05E4  00EF  	MOVWF binToBcd_00000_arg_iBin+D'1'
05E5  229D  	CALL binToBcd_00000
05E6  0874  	MOVF CompTempVarRet576, W
05E7  00B3  	MOVWF gbl_giDS3231ValueBCD
05E8  0875  	MOVF CompTempVarRet576+D'1', W
05E9  00B4  	MOVWF gbl_giDS3231ValueBCD+D'1'
05EA  0008  	RETURN
05EB        ; } convertTemp function end

	ORG 0x000005EB
05EB        main
05EB        ; { main ; function begin
05EB  255D  	CALL initialise_00000
05EC  23D3  	CALL tm1638Upda_00020
05ED        label98
05ED  084D  	MOVF gbl_cTask, W
05EE  3C00  	SUBLW 0x00
05EF  1803  	BTFSC STATUS,C
05F0  2DED  	GOTO	label98
05F1  1D4D  	BTFSS gbl_cTask,2
05F2  2E0E  	GOTO	label104
05F3  08D0  	MOVF gbl_gcSetMode, F
05F4  1D03  	BTFSS STATUS,Z
05F5  2E0D  	GOTO	label103
05F6  2589  	CALL ds3231Read_0001D
05F7  0835  	MOVF gbl_gBcdSeconds, W
05F8  3A29  	XORLW 0x29
05F9  1903  	BTFSC STATUS,Z
05FA  2DFF  	GOTO	label99
05FB  0835  	MOVF gbl_gBcdSeconds, W
05FC  3A59  	XORLW 0x59
05FD  1D03  	BTFSS STATUS,Z
05FE  2E02  	GOTO	label100
05FF        label99
05FF  2545  	CALL oneWireBus_00013
0600  24DE  	CALL startTemp_00000
0601  2E0C  	GOTO	label102
0602        label100
0602  08B5  	MOVF gbl_gBcdSeconds, F
0603  1903  	BTFSC STATUS,Z
0604  2E09  	GOTO	label101
0605  0835  	MOVF gbl_gBcdSeconds, W
0606  3A30  	XORLW 0x30
0607  1D03  	BTFSS STATUS,Z
0608  2E0C  	GOTO	label102
0609        label101
0609  2545  	CALL oneWireBus_00013
060A  24E6  	CALL readTemp_00000
060B  25B3  	CALL convertTem_00025
060C        label102
060C  23D3  	CALL tm1638Upda_00020
060D        label103
060D  114D  	BCF gbl_cTask,2
060E        label104
060E  1ECD  	BTFSS gbl_cTask,5
060F  2E15  	GOTO	label105
0610  0850  	MOVF gbl_gcSetMode, W
0611  3C00  	SUBLW 0x00
0612  1C03  	BTFSS STATUS,C
0613  23D3  	CALL tm1638Upda_00020
0614  12CD  	BCF gbl_cTask,5
0615        label105
0615  24BA  	CALL tm1638Read_00021
0616  08E5  	MOVF gbl_tm1638Keys, F
0617  1D03  	BTFSS STATUS,Z
0618  24F4  	CALL processKey_00024
0619  2DED  	GOTO	label98
061A        ; } main function end

	ORG 0x0000061A
061A        _startup
061A  1283  	BCF STATUS, RP0
061B  1303  	BCF STATUS, RP1
061C  01B5  	CLRF gbl_gBcdSeconds
061D  01B6  	CLRF gbl_gBcdMinute
061E  01B7  	CLRF gbl_gBcdHour
061F  3001  	MOVLW 0x01
0620  00B8  	MOVWF gbl_gDayOfWeek
0621  3001  	MOVLW 0x01
0622  00B9  	MOVWF gbl_gBcdDayOfMonth
0623  3001  	MOVLW 0x01
0624  00BA  	MOVWF gbl_gBcdMonth
0625  3023  	MOVLW 0x23
0626  00BB  	MOVWF gbl_gBcdYear
0627  3000  	MOVLW 0x00
0628  00BC  	MOVWF gbl_gDaysInMonth
0629  3001  	MOVLW 0x01
062A  00BD  	MOVWF gbl_gLeapYears
062B  01BE  	CLRF gbl_iTimer2Counts
062C  01BF  	CLRF gbl_iFlashDigitOff
062D  3008  	MOVLW 0x08
062E  00C8  	MOVWF gbl_iDigitToFlash
062F  01C9  	CLRF gbl_cTempH
0630  01CA  	CLRF gbl_cTempL
0631  3002  	MOVLW 0x02
0632  00CB  	MOVWF gbl_iDecimalPosition
0633  01B3  	CLRF gbl_giDS3231ValueBCD
0634  01B4  	CLRF gbl_giDS3231ValueBCD+D'1'
0635  01CC  	CLRF gbl_gbDS3231IsMinus
0636  01CD  	CLRF gbl_cTask
0637  104E  	BCF gbl_gbWhiteOn,0
0638  10CE  	BCF gbl_gbBlueOn,1
0639  114E  	BCF gbl_gbFanOn,2
063A  11CE  	BCF gbl_gbHeaterOn,3
063B  124E  	BCF gbl_gbFlashOff,4
063C  01CF  	CLRF gbl_gcDisplayMode
063D  01D0  	CLRF gbl_gcSetMode
063E  01D1  	CLRF gbl_gBcdWhiteOnMinute
063F  01D2  	CLRF gbl_gBcdWhiteOnHour
0640  01D3  	CLRF gbl_gBcdWhiteOffMinute
0641  01D4  	CLRF gbl_gBcdWhiteOffHour
0642  01D5  	CLRF gbl_gBcdBlueOnMinute
0643  01D6  	CLRF gbl_gBcdBlueOnHour
0644  01D7  	CLRF gbl_gBcdBlueOffMinute
0645  01D8  	CLRF gbl_gBcdBlueOffHour
0646  301C  	MOVLW 0x1C
0647  00D9  	MOVWF gbl_gFanOnTemp
0648  301B  	MOVLW 0x1B
0649  00DA  	MOVWF gbl_gFanOffTemp
064A  3018  	MOVLW 0x18
064B  00DB  	MOVWF gbl_gHeaterOnTemp
064C  3019  	MOVLW 0x19
064D  00DC  	MOVWF gbl_gHeaterOffTemp
064E  3008  	MOVLW 0x08
064F  00DD  	MOVWF gbl_tm1638MaxDigits
0650  3002  	MOVLW 0x02
0651  00DE  	MOVWF gbl_tm1638DisplayNumtoSeg
0652  3080  	MOVLW 0x80
0653  00DF  	MOVWF gbl_tm1638Dot
0654  3007  	MOVLW 0x07
0655  00E0  	MOVWF gbl_tm1638Brightness
0656  3040  	MOVLW 0x40
0657  00E1  	MOVWF gbl_tm1638ByteSetData
0658  3042  	MOVLW 0x42
0659  00E2  	MOVWF gbl_tm1638ByteReadData
065A  30C0  	MOVLW 0xC0
065B  00E3  	MOVWF gbl_tm1638ByteSetAddr
065C  3088  	MOVLW 0x88
065D  00E4  	MOVWF gbl_tm1638ByteSetOn
065E  01A0  	CLRF gbl_tm1638Data
065F  01A1  	CLRF gbl_tm1638Data+D'1'
0660  01A2  	CLRF gbl_tm1638Data+D'2'
0661  01A3  	CLRF gbl_tm1638Data+D'3'
0662  01A4  	CLRF gbl_tm1638Data+D'4'
0663  01A5  	CLRF gbl_tm1638Data+D'5'
0664  01A6  	CLRF gbl_tm1638Data+D'6'
0665  01A7  	CLRF gbl_tm1638Data+D'7'
0666  01A8  	CLRF gbl_tm1638LEDs
0667  01A9  	CLRF gbl_tm1638LEDs+D'1'
0668  01AA  	CLRF gbl_tm1638LEDs+D'2'
0669  01AB  	CLRF gbl_tm1638LEDs+D'3'
066A  01AC  	CLRF gbl_tm1638LEDs+D'4'
066B  01AD  	CLRF gbl_tm1638LEDs+D'5'
066C  01AE  	CLRF gbl_tm1638LEDs+D'6'
066D  01AF  	CLRF gbl_tm1638LEDs+D'7'
066E  01E5  	CLRF gbl_tm1638Keys
066F  01E6  	CLRF gbl_oneWireIsPresent
0670  01E7  	CLRF gbl_oneWireResetStage
0671  118A  	BCF PCLATH,3
0672  120A  	BCF PCLATH,4
0673  2DEB  	GOTO	main
	ORG 0x00000674
0674        interrupt
0674        ; { interrupt ; function begin
0674  1283  	BCF STATUS, RP0
0675  1303  	BCF STATUS, RP1
0676  1C0C  	BTFSS gbl_pir1,0
0677  2E7D  	GOTO	label107
0678  30FF  	MOVLW 0xFF
0679  008F  	MOVWF gbl_tmr1h
067A  008E  	MOVWF gbl_tmr1l
067B  100C  	BCF gbl_pir1,0
067C  154D  	BSF gbl_cTask,2
067D        label107
067D  1C8C  	BTFSS gbl_pir1,1
067E  2E88  	GOTO	label109
067F  0ABE  	INCF gbl_iTimer2Counts, F
0680  083E  	MOVF gbl_iTimer2Counts, W
0681  3C09  	SUBLW 0x09
0682  1803  	BTFSC STATUS,C
0683  2E87  	GOTO	label108
0684  0ABF  	INCF gbl_iFlashDigitOff, F
0685  01BE  	CLRF gbl_iTimer2Counts
0686  16CD  	BSF gbl_cTask,5
0687        label108
0687  108C  	BCF gbl_pir1,1
0688        label109
0688  0E32  	SWAPF Int1BContext+D'2', W
0689  0084  	MOVWF FSR
068A  0E31  	SWAPF Int1BContext+D'1', W
068B  008A  	MOVWF PCLATH
068C  0E30  	SWAPF Int1BContext, W
068D  0083  	MOVWF STATUS
068E  0EFF  	SWAPF Int1Context, F
068F  0E7F  	SWAPF Int1Context, W
0690  0009  	RETFIE
0691        ; } interrupt function end

	ORG 0x00002007
2007  3F18  	DW 0x3F18
