;/////////////////////////////////////////////////////////////////////////////////
;// Code Generator: BoostC Compiler - http://www.sourceboost.com
;// Version       : 8.01
;// License Type  : Pro License
;// Limitations   : PIC12,PIC16 max code size:Unlimited, max RAM banks:Unlimited
;/////////////////////////////////////////////////////////////////////////////////

	ORG 0x00000000
0000  158A  	BSF PCLATH,3
0001  29B9  	GOTO	_startup
	ORG 0x00000004
0004  00FF  	MOVWF Int1Context
0005  0E03  	SWAPF STATUS, W
0006  1283  	BCF STATUS, RP0
0007  1303  	BCF STATUS, RP1
0008  00B0  	MOVWF Int1BContext
0009  0E0A  	SWAPF PCLATH, W
000A  00B1  	MOVWF Int1BContext+D'1'
000B  0E04  	SWAPF FSR, W
000C  00B2  	MOVWF Int1BContext+D'2'
000D  158A  	BSF PCLATH,3
000E  120A  	BCF PCLATH,4
000F  2A20  	GOTO	interrupt
	ORG 0x00000010
0010        delay_us_00000
0010        ; { delay_us ; function begin
0010  3003  	MOVLW 0x03
0011  07F8  	ADDWF delay_us_00000_arg_del, F
0012  0CF8  	RRF delay_us_00000_arg_del, F
0013  0CF8  	RRF delay_us_00000_arg_del, F
0014  307F  	MOVLW 0x7F
0015  05F8  	ANDWF delay_us_00000_arg_del, F
0016        label1
0016  0000  	NOP
0017  0BF8  	DECFSZ delay_us_00000_arg_del, F
0018  2816  	GOTO	label1
0019  0008  	RETURN
001A        ; } delay_us function end

	ORG 0x0000001A
001A        __rom_get_00000
001A        ; { __rom_get ; function begin
001A  087B  	MOVF __rom_get_00000_arg_objNumb, W
001B  00FE  	MOVWF __rom_get_00000_1_romAddr+D'1'
001C  01FD  	CLRF __rom_get_00000_1_romAddr
001D  1003  	BCF STATUS,C
001E  0DFE  	RLF __rom_get_00000_1_romAddr+D'1', F
001F  0DFD  	RLF __rom_get_00000_1_romAddr, F
0020  0DFE  	RLF __rom_get_00000_1_romAddr+D'1', F
0021  0DFD  	RLF __rom_get_00000_1_romAddr, F
0022  07FE  	ADDWF __rom_get_00000_1_romAddr+D'1', F
0023  1803  	BTFSC STATUS,C
0024  0AFD  	INCF __rom_get_00000_1_romAddr, F
0025  07FE  	ADDWF __rom_get_00000_1_romAddr+D'1', F
0026  1803  	BTFSC STATUS,C
0027  0AFD  	INCF __rom_get_00000_1_romAddr, F
0028  3033  	MOVLW	LOW( label2 )
0029  07FE  	ADDWF __rom_get_00000_1_romAddr+D'1', F
002A  1803  	BTFSC STATUS,C
002B  0AFD  	INCF __rom_get_00000_1_romAddr, F
002C  3000  	MOVLW	HIGH( label2 )
002D  077D  	ADDWF __rom_get_00000_1_romAddr, W
002E  008A  	MOVWF PCLATH
002F  087C  	MOVF __rom_get_00000_arg_idx, W
0030  00FD  	MOVWF __rom_get_00000_1_romAddr
0031  087E  	MOVF __rom_get_00000_1_romAddr+D'1', W
0032  0082  	MOVWF PCL
0033        label2
0033  3000  	MOVLW	HIGH( label3 )
0034  008A  	MOVWF PCLATH
0035  3000  	MOVLW	HIGH( label4 )
0036  00FE  	MOVWF __rom_get_00000_1_romAddr+D'1'
0037  3049  	MOVLW	LOW( label4 )
0038  2842  	GOTO	label3
0039  3000  	MOVLW	HIGH( label3 )
003A  008A  	MOVWF PCLATH
003B  3000  	MOVLW	HIGH( label5 )
003C  00FE  	MOVWF __rom_get_00000_1_romAddr+D'1'
003D  3055  	MOVLW	LOW( label5 )
003E  2842  	GOTO	label3
003F  3000  	MOVLW	HIGH( label6 )
0040  00FE  	MOVWF __rom_get_00000_1_romAddr+D'1'
0041  306D  	MOVLW	LOW( label6 )
0042        label3
0042  07FD  	ADDWF __rom_get_00000_1_romAddr, F
0043  1803  	BTFSC STATUS,C
0044  0AFE  	INCF __rom_get_00000_1_romAddr+D'1', F
0045  087E  	MOVF __rom_get_00000_1_romAddr+D'1', W
0046  008A  	MOVWF PCLATH
0047  087D  	MOVF __rom_get_00000_1_romAddr, W
0048  0082  	MOVWF PCL
0049        label4
0049  3431  	RETLW 0x31
004A  3428  	RETLW 0x28
004B  3431  	RETLW 0x31
004C  3430  	RETLW 0x30
004D  3431  	RETLW 0x31
004E  3430  	RETLW 0x30
004F  3431  	RETLW 0x31
0050  3431  	RETLW 0x31
0051  3430  	RETLW 0x30
0052  3431  	RETLW 0x31
0053  3430  	RETLW 0x30
0054  3431  	RETLW 0x31
0055        label5
0055  3404  	RETLW 0x04
0056  3408  	RETLW 0x08
0057  3412  	RETLW 0x12
0058  3416  	RETLW 0x16
0059  3420  	RETLW 0x20
005A  3424  	RETLW 0x24
005B  3428  	RETLW 0x28
005C  3432  	RETLW 0x32
005D  3436  	RETLW 0x36
005E  3440  	RETLW 0x40
005F  3444  	RETLW 0x44
0060  3448  	RETLW 0x48
0061  3452  	RETLW 0x52
0062  3456  	RETLW 0x56
0063  3460  	RETLW 0x60
0064  3464  	RETLW 0x64
0065  3468  	RETLW 0x68
0066  3472  	RETLW 0x72
0067  3476  	RETLW 0x76
0068  3480  	RETLW 0x80
0069  3484  	RETLW 0x84
006A  3488  	RETLW 0x88
006B  3492  	RETLW 0x92
006C  3496  	RETLW 0x96
006D        label6
006D  343F  	RETLW 0x3F
006E  3406  	RETLW 0x06
006F  345B  	RETLW 0x5B
0070  344F  	RETLW 0x4F
0071  3466  	RETLW 0x66
0072  346D  	RETLW 0x6D
0073  347D  	RETLW 0x7D
0074  3407  	RETLW 0x07
0075  347F  	RETLW 0x7F
0076  346F  	RETLW 0x6F
0077        ; } __rom_get function end

	ORG 0x00000077
0077        delay_10us_00000
0077        ; { delay_10us ; function begin
0077        label7
0077  0000  	NOP
0078  0000  	NOP
0079  0000  	NOP
007A  0000  	NOP
007B  0000  	NOP
007C  0000  	NOP
007D  0000  	NOP
007E  0BF7  	DECFSZ delay_10us_00000_arg_del, F
007F  2877  	GOTO	label7
0080  0008  	RETURN
0081        ; } delay_10us function end

	ORG 0x00000081
0081        delay_ms_00000
0081        ; { delay_ms ; function begin
0081  08F2  	MOVF delay_ms_00000_arg_del, F
0082  1D03  	BTFSS STATUS,Z
0083  2885  	GOTO	label8
0084  0008  	RETURN
0085        label8
0085  30F9  	MOVLW 0xF9
0086        label9
0086  3EFF  	ADDLW 0xFF
0087  1D03  	BTFSS STATUS,Z
0088  2886  	GOTO	label9
0089  0000  	NOP
008A  0BF2  	DECFSZ delay_ms_00000_arg_del, F
008B  2885  	GOTO	label8
008C  0008  	RETURN
008D        ; } delay_ms function end

	ORG 0x0000008D
008D        nibbleTo7S_00020
008D        ; { nibbleTo7Seg ; function begin
008D  0864  	MOVF gbl_tm1638DisplayNumtoSeg, W
008E  00FB  	MOVWF __rom_get_00000_arg_objNumb
008F  300F  	MOVLW 0x0F
0090  0579  	ANDWF nibbleTo7S_00020_arg_bNibble, W
0091  00FC  	MOVWF __rom_get_00000_arg_idx
0092  201A  	CALL __rom_get_00000
0093  00FA  	MOVWF nibbleTo7S_00020_1_s7SegDisplay
0094  086E  	MOVF gbl_iPrintDotDigit, W
0095  066D  	XORWF gbl_iPrintStartDigit, W
0096  118A  	BCF PCLATH,3
0097  120A  	BCF PCLATH,4
0098  1D03  	BTFSS STATUS,Z
0099  289C  	GOTO	label10
009A  0865  	MOVF gbl_tm1638Dot, W
009B  04FA  	IORWF nibbleTo7S_00020_1_s7SegDisplay, F
009C        label10
009C  1383  	BCF	STATUS,IRP
009D  3020  	MOVLW LOW(gbl_tm1638Data+D'0')
009E  0084  	MOVWF FSR
009F  086D  	MOVF gbl_iPrintStartDigit, W
00A0  0784  	ADDWF FSR, F
00A1  087A  	MOVF nibbleTo7S_00020_1_s7SegDisplay, W
00A2  0080  	MOVWF INDF
00A3  0AED  	INCF gbl_iPrintStartDigit, F
00A4  0008  	RETURN
00A5        ; } nibbleTo7Seg function end

	ORG 0x000000A5
00A5        i2c_WRITE_00000
00A5        ; { i2c_WRITE ; function begin
00A5  11C6  	BCF i2c_WRITE_00000_1_l_bclif,3
00A6  11C5  	BCF i2c_WRITE_00000_1_l_sspif,3
00A7  13C0  	BCF i2c_WRITE_00000_1_l_wcol,7
00A8  0875  	MOVF i2c_WRITE_00000_arg_i2c_data, W
00A9  00C4  	MOVWF i2c_WRITE_00000_1_i2c_SSPBUF
00AA  1187  	BCF i2c_WRITE_00000_1_l_scl,3
00AB  1207  	BCF i2c_WRITE_00000_1_l_sda,4
00AC  1142  	BCF i2c_WRITE_00000_1_l_rw,2
00AD  3080  	MOVLW 0x80
00AE  00F6  	MOVWF i2c_WRITE_00000_1_BitMask
00AF        label11
00AF  08F6  	MOVF i2c_WRITE_00000_1_BitMask, F
00B0  1903  	BTFSC STATUS,Z
00B1  28D2  	GOTO	label16
00B2  0876  	MOVF i2c_WRITE_00000_1_BitMask, W
00B3  0575  	ANDWF i2c_WRITE_00000_arg_i2c_data, W
00B4  1903  	BTFSC STATUS,Z
00B5  28B9  	GOTO	label12
00B6  1683  	BSF STATUS, RP0
00B7  1607  	BSF i2c_WRITE_00000_1_l_sda_tris,4
00B8  28BB  	GOTO	label13
00B9        label12
00B9  1683  	BSF STATUS, RP0
00BA  1207  	BCF i2c_WRITE_00000_1_l_sda_tris,4
00BB        label13
00BB  300A  	MOVLW 0x0A
00BC  1283  	BCF STATUS, RP0
00BD  00F8  	MOVWF delay_us_00000_arg_del
00BE  2010  	CALL delay_us_00000
00BF  1683  	BSF STATUS, RP0
00C0  1587  	BSF i2c_WRITE_00000_1_l_scl_tris,3
00C1        label14
00C1  1283  	BCF STATUS, RP0
00C2  1987  	BTFSC i2c_WRITE_00000_1_l_scl,3
00C3  28C6  	GOTO	label15
00C4  0064  	CLRWDT
00C5  28C1  	GOTO	label14
00C6        label15
00C6  300A  	MOVLW 0x0A
00C7  00F8  	MOVWF delay_us_00000_arg_del
00C8  2010  	CALL delay_us_00000
00C9  1683  	BSF STATUS, RP0
00CA  1187  	BCF i2c_WRITE_00000_1_l_scl_tris,3
00CB  300A  	MOVLW 0x0A
00CC  1283  	BCF STATUS, RP0
00CD  00F8  	MOVWF delay_us_00000_arg_del
00CE  2010  	CALL delay_us_00000
00CF  1003  	BCF STATUS,C
00D0  0CF6  	RRF i2c_WRITE_00000_1_BitMask, F
00D1  28AF  	GOTO	label11
00D2        label16
00D2  15C5  	BSF i2c_WRITE_00000_1_l_sspif,3
00D3  1641  	BSF i2c_WRITE_00000_1_l_acken,4
00D4  12C1  	BCF i2c_WRITE_00000_1_l_ackdt,5
00D5  1683  	BSF STATUS, RP0
00D6  1607  	BSF i2c_WRITE_00000_1_l_sda_tris,4
00D7  300A  	MOVLW 0x0A
00D8  1283  	BCF STATUS, RP0
00D9  00F8  	MOVWF delay_us_00000_arg_del
00DA  2010  	CALL delay_us_00000
00DB  1683  	BSF STATUS, RP0
00DC  1587  	BSF i2c_WRITE_00000_1_l_scl_tris,3
00DD        label17
00DD  1283  	BCF STATUS, RP0
00DE  1987  	BTFSC i2c_WRITE_00000_1_l_scl,3
00DF  28E2  	GOTO	label18
00E0  0064  	CLRWDT
00E1  28DD  	GOTO	label17
00E2        label18
00E2  300A  	MOVLW 0x0A
00E3  00F8  	MOVWF delay_us_00000_arg_del
00E4  2010  	CALL delay_us_00000
00E5  1077  	BCF i2c_WRITE_00000_1_local_ack,0
00E6  1A07  	BTFSC i2c_WRITE_00000_1_l_sda,4
00E7  1477  	BSF i2c_WRITE_00000_1_local_ack,0
00E8  300A  	MOVLW 0x0A
00E9  00F8  	MOVWF delay_us_00000_arg_del
00EA  2010  	CALL delay_us_00000
00EB  1683  	BSF STATUS, RP0
00EC  1187  	BCF i2c_WRITE_00000_1_l_scl_tris,3
00ED  1283  	BCF STATUS, RP0
00EE  1241  	BCF i2c_WRITE_00000_1_l_acken,4
00EF  300A  	MOVLW 0x0A
00F0  00F8  	MOVWF delay_us_00000_arg_del
00F1  2010  	CALL delay_us_00000
00F2  01F8  	CLRF CompTempVarRet552
00F3  1877  	BTFSC i2c_WRITE_00000_1_local_ack,0
00F4  0AF8  	INCF CompTempVarRet552, F
00F5  0008  	RETURN
00F6        ; } i2c_WRITE function end

	ORG 0x000000F6
00F6        i2c_STOP_00000
00F6        ; { i2c_STOP ; function begin
00F6  1283  	BCF STATUS, RP0
00F7  1303  	BCF STATUS, RP1
00F8  11C6  	BCF i2c_STOP_00000_1_l_bclif,3
00F9  11C5  	BCF i2c_STOP_00000_1_l_sspif,3
00FA  1541  	BSF i2c_STOP_00000_1_l_pen,2
00FB  300A  	MOVLW 0x0A
00FC  00F8  	MOVWF delay_us_00000_arg_del
00FD  2010  	CALL delay_us_00000
00FE  1187  	BCF i2c_STOP_00000_1_l_scl,3
00FF  1207  	BCF i2c_STOP_00000_1_l_sda,4
0100  1683  	BSF STATUS, RP0
0101  1187  	BCF i2c_STOP_00000_1_l_scl_tris,3
0102  1207  	BCF i2c_STOP_00000_1_l_sda_tris,4
0103  300A  	MOVLW 0x0A
0104  1283  	BCF STATUS, RP0
0105  00F8  	MOVWF delay_us_00000_arg_del
0106  2010  	CALL delay_us_00000
0107  1683  	BSF STATUS, RP0
0108  1587  	BSF i2c_STOP_00000_1_l_scl_tris,3
0109        label19
0109  1283  	BCF STATUS, RP0
010A  1987  	BTFSC i2c_STOP_00000_1_l_scl,3
010B  290E  	GOTO	label20
010C  0064  	CLRWDT
010D  2909  	GOTO	label19
010E        label20
010E  300A  	MOVLW 0x0A
010F  00F8  	MOVWF delay_us_00000_arg_del
0110  2010  	CALL delay_us_00000
0111  1683  	BSF STATUS, RP0
0112  1607  	BSF i2c_STOP_00000_1_l_sda_tris,4
0113  300A  	MOVLW 0x0A
0114  1283  	BCF STATUS, RP0
0115  00F8  	MOVWF delay_us_00000_arg_del
0116  2010  	CALL delay_us_00000
0117  1E07  	BTFSS i2c_STOP_00000_1_l_sda,4
0118  291B  	GOTO	label21
0119  1987  	BTFSC i2c_STOP_00000_1_l_scl,3
011A  291F  	GOTO	label22
011B        label21
011B  15C6  	BSF i2c_STOP_00000_1_l_bclif,3
011C  11C2  	BCF i2c_STOP_00000_1_l_s,3
011D  1141  	BCF i2c_STOP_00000_1_l_pen,2
011E  0008  	RETURN
011F        label22
011F  1642  	BSF i2c_STOP_00000_1_l_p,4
0120  1141  	BCF i2c_STOP_00000_1_l_pen,2
0121  1041  	BCF i2c_STOP_00000_1_l_sen,0
0122  10C1  	BCF i2c_STOP_00000_1_l_rsen,1
0123  11C1  	BCF i2c_STOP_00000_1_l_rcen,3
0124  1241  	BCF i2c_STOP_00000_1_l_acken,4
0125  0008  	RETURN
0126        ; } i2c_STOP function end

	ORG 0x00000126
0126        i2c_START_00000
0126        ; { i2c_START ; function begin
0126  300A  	MOVLW 0x0A
0127  1283  	BCF STATUS, RP0
0128  1303  	BCF STATUS, RP1
0129  00F8  	MOVWF delay_us_00000_arg_del
012A  2010  	CALL delay_us_00000
012B  11C6  	BCF i2c_START_00000_1_l_bclif,3
012C  11C5  	BCF i2c_START_00000_1_l_sspif,3
012D  1441  	BSF i2c_START_00000_1_l_sen,0
012E  1683  	BSF STATUS, RP0
012F  1587  	BSF i2c_START_00000_1_l_scl_tris,3
0130  1607  	BSF i2c_START_00000_1_l_sda_tris,4
0131  1283  	BCF STATUS, RP0
0132  1187  	BCF i2c_START_00000_1_l_scl,3
0133  1207  	BCF i2c_START_00000_1_l_sda,4
0134  1D87  	BTFSS i2c_START_00000_1_l_scl,3
0135  2953  	GOTO	label24
0136  1E07  	BTFSS i2c_START_00000_1_l_sda,4
0137  2953  	GOTO	label24
0138  300A  	MOVLW 0x0A
0139  00F8  	MOVWF delay_us_00000_arg_del
013A  2010  	CALL delay_us_00000
013B  1987  	BTFSC i2c_START_00000_1_l_scl,3
013C  2941  	GOTO	label23
013D  15C6  	BSF i2c_START_00000_1_l_bclif,3
013E  15C2  	BSF i2c_START_00000_1_l_s,3
013F  1041  	BCF i2c_START_00000_1_l_sen,0
0140  0008  	RETURN
0141        label23
0141  1207  	BCF i2c_START_00000_1_l_sda,4
0142  1683  	BSF STATUS, RP0
0143  1207  	BCF i2c_START_00000_1_l_sda_tris,4
0144  300A  	MOVLW 0x0A
0145  1283  	BCF STATUS, RP0
0146  00F8  	MOVWF delay_us_00000_arg_del
0147  2010  	CALL delay_us_00000
0148  1187  	BCF i2c_START_00000_1_l_scl,3
0149  1683  	BSF STATUS, RP0
014A  1187  	BCF i2c_START_00000_1_l_scl_tris,3
014B  300A  	MOVLW 0x0A
014C  1283  	BCF STATUS, RP0
014D  00F8  	MOVWF delay_us_00000_arg_del
014E  2010  	CALL delay_us_00000
014F  15C2  	BSF i2c_START_00000_1_l_s,3
0150  1041  	BCF i2c_START_00000_1_l_sen,0
0151  15C5  	BSF i2c_START_00000_1_l_sspif,3
0152  0008  	RETURN
0153        label24
0153  15C6  	BSF i2c_START_00000_1_l_bclif,3
0154  15C2  	BSF i2c_START_00000_1_l_s,3
0155  1041  	BCF i2c_START_00000_1_l_sen,0
0156  10C1  	BCF i2c_START_00000_1_l_rsen,1
0157  1141  	BCF i2c_START_00000_1_l_pen,2
0158  11C1  	BCF i2c_START_00000_1_l_rcen,3
0159  1241  	BCF i2c_START_00000_1_l_acken,4
015A  0008  	RETURN
015B        ; } i2c_START function end

	ORG 0x0000015B
015B        zeroToBlan_00025
015B        ; { zeroToBlank ; function begin
015B  1383  	BCF	STATUS,IRP
015C  3020  	MOVLW LOW(gbl_tm1638Data+D'0')
015D  0084  	MOVWF FSR
015E  0878  	MOVF zeroToBlan_00025_arg_iDigit, W
015F  0784  	ADDWF FSR, F
0160  0800  	MOVF INDF, W
0161  3A3F  	XORLW 0x3F
0162  1D03  	BTFSS STATUS,Z
0163  0008  	RETURN
0164  1383  	BCF	STATUS,IRP
0165  3020  	MOVLW LOW(gbl_tm1638Data+D'0')
0166  0084  	MOVWF FSR
0167  0878  	MOVF zeroToBlan_00025_arg_iDigit, W
0168  0784  	ADDWF FSR, F
0169  3000  	MOVLW 0x00
016A  0080  	MOVWF INDF
016B  0008  	RETURN
016C        ; } zeroToBlank function end

	ORG 0x0000016C
016C        tm1638Byte_0001F
016C        ; { tm1638ByteWrite ; function begin
016C  01F7  	CLRF tm1638Byte_0001F_2_i
016D        label25
016D  3008  	MOVLW 0x08
016E  0277  	SUBWF tm1638Byte_0001F_2_i, W
016F  1803  	BTFSC STATUS,C
0170  0008  	RETURN
0171  3001  	MOVLW 0x01
0172  0576  	ANDWF tm1638Byte_0001F_arg_bWrite, W
0173  00F8  	MOVWF CompTempVar555
0174  1878  	BTFSC CompTempVar555,0
0175  1486  	BSF gbl_portb,1
0176  1C78  	BTFSS CompTempVar555,0
0177  1086  	BCF gbl_portb,1
0178  1106  	BCF gbl_portb,2
0179  08F6  	MOVF tm1638Byte_0001F_arg_bWrite, F
017A  1003  	BCF STATUS,C
017B  0CF6  	RRF tm1638Byte_0001F_arg_bWrite, F
017C  1506  	BSF gbl_portb,2
017D  0AF7  	INCF tm1638Byte_0001F_2_i, F
017E  296D  	GOTO	label25
017F        ; } tm1638ByteWrite function end

	ORG 0x0000017F
017F        oneWireTxB_00018
017F        ; { oneWireTxByte ; function begin
017F  3001  	MOVLW 0x01
0180  00F5  	MOVWF oneWireTxB_00018_1_cTemp
0181  01F6  	CLRF oneWireTxB_00018_2_i
0182        label26
0182  3008  	MOVLW 0x08
0183  0276  	SUBWF oneWireTxB_00018_2_i, W
0184  1803  	BTFSC STATUS,C
0185  0008  	RETURN
0186  1683  	BSF STATUS, RP0
0187  1287  	BCF gbl_trisc,5
0188  1283  	BCF STATUS, RP0
0189  1287  	BCF gbl_portc,5
018A  0875  	MOVF oneWireTxB_00018_1_cTemp, W
018B  0574  	ANDWF oneWireTxB_00018_arg_cData, W
018C  1903  	BTFSC STATUS,Z
018D  2990  	GOTO	label27
018E  1683  	BSF STATUS, RP0
018F  1687  	BSF gbl_trisc,5
0190        label27
0190  3005  	MOVLW 0x05
0191  1283  	BCF STATUS, RP0
0192  00F7  	MOVWF delay_10us_00000_arg_del
0193  2077  	CALL delay_10us_00000
0194  1683  	BSF STATUS, RP0
0195  1687  	BSF gbl_trisc,5
0196  1003  	BCF STATUS,C
0197  1283  	BCF STATUS, RP0
0198  0DF5  	RLF oneWireTxB_00018_1_cTemp, F
0199  0AF6  	INCF oneWireTxB_00018_2_i, F
019A  2982  	GOTO	label26
019B        ; } oneWireTxByte function end

	ORG 0x0000019B
019B        intToBcd_00000
019B        ; { intToBcd ; function begin
019B  01FC  	CLRF intToBcd_00000_1_iBcdOut
019C  01FD  	CLRF intToBcd_00000_1_iBcdOut+D'1'
019D  01FC  	CLRF intToBcd_00000_1_iBcdOut
019E  01FD  	CLRF intToBcd_00000_1_iBcdOut+D'1'
019F        label28
019F  3003  	MOVLW 0x03
01A0  027B  	SUBWF intToBcd_00000_arg_iValue+D'1', W
01A1  1D03  	BTFSS STATUS,Z
01A2  29A5  	GOTO	label29
01A3  30E8  	MOVLW 0xE8
01A4  027A  	SUBWF intToBcd_00000_arg_iValue, W
01A5        label29
01A5  1C03  	BTFSS STATUS,C
01A6  29B2  	GOTO	label30
01A7  1BFB  	BTFSC intToBcd_00000_arg_iValue+D'1',7
01A8  29B2  	GOTO	label30
01A9  30E8  	MOVLW 0xE8
01AA  02FA  	SUBWF intToBcd_00000_arg_iValue, F
01AB  3003  	MOVLW 0x03
01AC  1C03  	BTFSS STATUS,C
01AD  03FB  	DECF intToBcd_00000_arg_iValue+D'1', F
01AE  02FB  	SUBWF intToBcd_00000_arg_iValue+D'1', F
01AF  3010  	MOVLW 0x10
01B0  07FD  	ADDWF intToBcd_00000_1_iBcdOut+D'1', F
01B1  299F  	GOTO	label28
01B2        label30
01B2  087B  	MOVF intToBcd_00000_arg_iValue+D'1', W
01B3  3A80  	XORLW 0x80
01B4  00FE  	MOVWF CompTempVar649
01B5  3080  	MOVLW 0x80
01B6  027E  	SUBWF CompTempVar649, W
01B7  1D03  	BTFSS STATUS,Z
01B8  29BB  	GOTO	label31
01B9  3064  	MOVLW 0x64
01BA  027A  	SUBWF intToBcd_00000_arg_iValue, W
01BB        label31
01BB  1C03  	BTFSS STATUS,C
01BC  29C3  	GOTO	label32
01BD  3064  	MOVLW 0x64
01BE  02FA  	SUBWF intToBcd_00000_arg_iValue, F
01BF  1C03  	BTFSS STATUS,C
01C0  03FB  	DECF intToBcd_00000_arg_iValue+D'1', F
01C1  0AFD  	INCF intToBcd_00000_1_iBcdOut+D'1', F
01C2  29B2  	GOTO	label30
01C3        label32
01C3  087B  	MOVF intToBcd_00000_arg_iValue+D'1', W
01C4  3A80  	XORLW 0x80
01C5  00FE  	MOVWF CompTempVar650
01C6  3080  	MOVLW 0x80
01C7  027E  	SUBWF CompTempVar650, W
01C8  1D03  	BTFSS STATUS,Z
01C9  29CC  	GOTO	label33
01CA  300A  	MOVLW 0x0A
01CB  027A  	SUBWF intToBcd_00000_arg_iValue, W
01CC        label33
01CC  1C03  	BTFSS STATUS,C
01CD  29D7  	GOTO	label34
01CE  300A  	MOVLW 0x0A
01CF  02FA  	SUBWF intToBcd_00000_arg_iValue, F
01D0  1C03  	BTFSS STATUS,C
01D1  03FB  	DECF intToBcd_00000_arg_iValue+D'1', F
01D2  3010  	MOVLW 0x10
01D3  07FC  	ADDWF intToBcd_00000_1_iBcdOut, F
01D4  1803  	BTFSC STATUS,C
01D5  0AFD  	INCF intToBcd_00000_1_iBcdOut+D'1', F
01D6  29C3  	GOTO	label32
01D7        label34
01D7  087A  	MOVF intToBcd_00000_arg_iValue, W
01D8  07FC  	ADDWF intToBcd_00000_1_iBcdOut, F
01D9  087B  	MOVF intToBcd_00000_arg_iValue+D'1', W
01DA  1803  	BTFSC STATUS,C
01DB  0AFD  	INCF intToBcd_00000_1_iBcdOut+D'1', F
01DC  07FD  	ADDWF intToBcd_00000_1_iBcdOut+D'1', F
01DD  0008  	RETURN
01DE        ; } intToBcd function end

	ORG 0x000001DE
01DE        i2c_READ_00000
01DE        ; { i2c_READ ; function begin
01DE  11C6  	BCF i2c_READ_00000_1_l_bclif,3
01DF  11C5  	BCF i2c_READ_00000_1_l_sspif,3
01E0  13C0  	BCF i2c_READ_00000_1_l_wcol,7
01E1  15C1  	BSF i2c_READ_00000_1_l_rcen,3
01E2  1875  	BTFSC i2c_READ_00000_arg_ack_status,0
01E3  16C1  	BSF i2c_READ_00000_1_l_ackdt,5
01E4  1C75  	BTFSS i2c_READ_00000_arg_ack_status,0
01E5  12C1  	BCF i2c_READ_00000_1_l_ackdt,5
01E6  1542  	BSF i2c_READ_00000_1_l_rw,2
01E7  1187  	BCF i2c_READ_00000_1_l_scl,3
01E8  1207  	BCF i2c_READ_00000_1_l_sda,4
01E9  1683  	BSF STATUS, RP0
01EA  1607  	BSF i2c_READ_00000_1_l_sda_tris,4
01EB  300A  	MOVLW 0x0A
01EC  1283  	BCF STATUS, RP0
01ED  00F8  	MOVWF delay_us_00000_arg_del
01EE  2010  	CALL delay_us_00000
01EF  01F7  	CLRF i2c_READ_00000_1_i2c_data
01F0  3080  	MOVLW 0x80
01F1  00F6  	MOVWF i2c_READ_00000_1_BitMask
01F2        label35
01F2  08F6  	MOVF i2c_READ_00000_1_BitMask, F
01F3  1903  	BTFSC STATUS,Z
01F4  2A0F  	GOTO	label39
01F5  1683  	BSF STATUS, RP0
01F6  1587  	BSF i2c_READ_00000_1_l_scl_tris,3
01F7        label36
01F7  1283  	BCF STATUS, RP0
01F8  1987  	BTFSC i2c_READ_00000_1_l_scl,3
01F9  29FC  	GOTO	label37
01FA  0064  	CLRWDT
01FB  29F7  	GOTO	label36
01FC        label37
01FC  300A  	MOVLW 0x0A
01FD  00F8  	MOVWF delay_us_00000_arg_del
01FE  2010  	CALL delay_us_00000
01FF  1683  	BSF STATUS, RP0
0200  1607  	BSF i2c_READ_00000_1_l_sda_tris,4
0201  1283  	BCF STATUS, RP0
0202  1E07  	BTFSS i2c_READ_00000_1_l_sda,4
0203  2A06  	GOTO	label38
0204  0876  	MOVF i2c_READ_00000_1_BitMask, W
0205  04F7  	IORWF i2c_READ_00000_1_i2c_data, F
0206        label38
0206  1683  	BSF STATUS, RP0
0207  1187  	BCF i2c_READ_00000_1_l_scl_tris,3
0208  300A  	MOVLW 0x0A
0209  1283  	BCF STATUS, RP0
020A  00F8  	MOVWF delay_us_00000_arg_del
020B  2010  	CALL delay_us_00000
020C  1003  	BCF STATUS,C
020D  0CF6  	RRF i2c_READ_00000_1_BitMask, F
020E  29F2  	GOTO	label35
020F        label39
020F  15C5  	BSF i2c_READ_00000_1_l_sspif,3
0210  11C1  	BCF i2c_READ_00000_1_l_rcen,3
0211  08F5  	MOVF i2c_READ_00000_arg_ack_status, F
0212  1903  	BTFSC STATUS,Z
0213  2A17  	GOTO	label40
0214  1683  	BSF STATUS, RP0
0215  1607  	BSF i2c_READ_00000_1_l_sda_tris,4
0216  2A19  	GOTO	label41
0217        label40
0217  1683  	BSF STATUS, RP0
0218  1207  	BCF i2c_READ_00000_1_l_sda_tris,4
0219        label41
0219  300A  	MOVLW 0x0A
021A  1283  	BCF STATUS, RP0
021B  00F8  	MOVWF delay_us_00000_arg_del
021C  2010  	CALL delay_us_00000
021D  1683  	BSF STATUS, RP0
021E  1587  	BSF i2c_READ_00000_1_l_scl_tris,3
021F        label42
021F  1283  	BCF STATUS, RP0
0220  1987  	BTFSC i2c_READ_00000_1_l_scl,3
0221  2A24  	GOTO	label43
0222  0064  	CLRWDT
0223  2A1F  	GOTO	label42
0224        label43
0224  11C5  	BCF i2c_READ_00000_1_l_sspif,3
0225  300A  	MOVLW 0x0A
0226  00F8  	MOVWF delay_us_00000_arg_del
0227  2010  	CALL delay_us_00000
0228  1683  	BSF STATUS, RP0
0229  1187  	BCF i2c_READ_00000_1_l_scl_tris,3
022A  1283  	BCF STATUS, RP0
022B  15C5  	BSF i2c_READ_00000_1_l_sspif,3
022C  300A  	MOVLW 0x0A
022D  00F8  	MOVWF delay_us_00000_arg_del
022E  2010  	CALL delay_us_00000
022F  0877  	MOVF i2c_READ_00000_1_i2c_data, W
0230  00F8  	MOVWF CompTempVarRet553
0231  0008  	RETURN
0232        ; } i2c_READ function end

	ORG 0x00000232
0232        ds3231Writ_0001B
0232        ; { ds3231Write ; function begin
0232  2126  	CALL i2c_START_00000
0233  30D0  	MOVLW 0xD0
0234  00F5  	MOVWF i2c_WRITE_00000_arg_i2c_data
0235  20A5  	CALL i2c_WRITE_00000
0236  0873  	MOVF ds3231Writ_0001B_arg_ds3231Reg, W
0237  00F5  	MOVWF i2c_WRITE_00000_arg_i2c_data
0238  20A5  	CALL i2c_WRITE_00000
0239  0874  	MOVF ds3231Writ_0001B_arg_bWrite, W
023A  00F5  	MOVWF i2c_WRITE_00000_arg_i2c_data
023B  20A5  	CALL i2c_WRITE_00000
023C  20F6  	CALL i2c_STOP_00000
023D  0008  	RETURN
023E        ; } ds3231Write function end

	ORG 0x0000023E
023E        bcdTo7Seg_00000
023E        ; { bcdTo7Seg ; function begin
023E  0E78  	SWAPF bcdTo7Seg_00000_arg_iBcdIn, W
023F  390F  	ANDLW 0x0F
0240  00F9  	MOVWF nibbleTo7S_00020_arg_bNibble
0241  208D  	CALL nibbleTo7S_00020
0242  0878  	MOVF bcdTo7Seg_00000_arg_iBcdIn, W
0243  00F9  	MOVWF nibbleTo7S_00020_arg_bNibble
0244  208D  	CALL nibbleTo7S_00020
0245  0008  	RETURN
0246        ; } bcdTo7Seg function end

	ORG 0x00000246
0246        bcdAdjust_00000
0246        ; { bcdAdjust ; function begin
0246  036F  	DECF gbl_iBcdAdjustment, W
0247  1D03  	BTFSS STATUS,Z
0248  2A5C  	GOTO	label46
0249  0875  	MOVF bcdAdjust_00000_arg_bcdMax, W
024A  0674  	XORWF bcdAdjust_00000_arg_bcd, W
024B  1D03  	BTFSS STATUS,Z
024C  2A50  	GOTO	label44
024D  0876  	MOVF bcdAdjust_00000_arg_bcdMin, W
024E  00F4  	MOVWF bcdAdjust_00000_arg_bcd
024F  2A6D  	GOTO	label49
0250        label44
0250  300F  	MOVLW 0x0F
0251  0574  	ANDWF bcdAdjust_00000_arg_bcd, W
0252  00F7  	MOVWF CompTempVar613
0253  0877  	MOVF CompTempVar613, W
0254  3A09  	XORLW 0x09
0255  1D03  	BTFSS STATUS,Z
0256  2A5A  	GOTO	label45
0257  3007  	MOVLW 0x07
0258  07F4  	ADDWF bcdAdjust_00000_arg_bcd, F
0259  2A6D  	GOTO	label49
025A        label45
025A  0AF4  	INCF bcdAdjust_00000_arg_bcd, F
025B  2A6D  	GOTO	label49
025C        label46
025C  0876  	MOVF bcdAdjust_00000_arg_bcdMin, W
025D  0674  	XORWF bcdAdjust_00000_arg_bcd, W
025E  1D03  	BTFSS STATUS,Z
025F  2A63  	GOTO	label47
0260  0875  	MOVF bcdAdjust_00000_arg_bcdMax, W
0261  00F4  	MOVWF bcdAdjust_00000_arg_bcd
0262  2A6D  	GOTO	label49
0263        label47
0263  300F  	MOVLW 0x0F
0264  0574  	ANDWF bcdAdjust_00000_arg_bcd, W
0265  00F7  	MOVWF CompTempVar614
0266  08F7  	MOVF CompTempVar614, F
0267  1D03  	BTFSS STATUS,Z
0268  2A6C  	GOTO	label48
0269  3007  	MOVLW 0x07
026A  02F4  	SUBWF bcdAdjust_00000_arg_bcd, F
026B  2A6D  	GOTO	label49
026C        label48
026C  03F4  	DECF bcdAdjust_00000_arg_bcd, F
026D        label49
026D  0874  	MOVF bcdAdjust_00000_arg_bcd, W
026E  00F7  	MOVWF CompTempVarRet612
026F  0008  	RETURN
0270        ; } bcdAdjust function end

	ORG 0x00000270
0270        __mul_16s__0000F
0270        ; { __mul_16s_16s__16 ; function begin
0270  01FE  	CLRF __mul_16s__0000F_1_i
0271  1683  	BSF STATUS, RP0
0272  01A2  	CLRF CompTempVarRet389
0273  01A3  	CLRF CompTempVarRet389+D'1'
0274  1283  	BCF STATUS, RP0
0275  087A  	MOVF __mul_16s__0000F_arg_a, W
0276  1683  	BSF STATUS, RP0
0277  00A0  	MOVWF __mul_16s__0000F_1_t
0278  1283  	BCF STATUS, RP0
0279  087B  	MOVF __mul_16s__0000F_arg_a+D'1', W
027A  1683  	BSF STATUS, RP0
027B  00A1  	MOVWF __mul_16s__0000F_1_t+D'1'
027C  1283  	BCF STATUS, RP0
027D  1FFD  	BTFSS __mul_16s__0000F_arg_b+D'1',7
027E  2A85  	GOTO	label50
027F  17FE  	BSF __mul_16s__0000F_1_i,7
0280  09FC  	COMF __mul_16s__0000F_arg_b, F
0281  09FD  	COMF __mul_16s__0000F_arg_b+D'1', F
0282  0AFC  	INCF __mul_16s__0000F_arg_b, F
0283  1903  	BTFSC gbl_status,2
0284  0AFD  	INCF __mul_16s__0000F_arg_b+D'1', F
0285        label50
0285  1A7E  	BTFSC __mul_16s__0000F_1_i,4
0286  2A9B  	GOTO	label52
0287  1C7C  	BTFSS __mul_16s__0000F_arg_b,0
0288  2A90  	GOTO	label51
0289  1683  	BSF STATUS, RP0
028A  0820  	MOVF __mul_16s__0000F_1_t, W
028B  07A2  	ADDWF CompTempVarRet389, F
028C  0821  	MOVF __mul_16s__0000F_1_t+D'1', W
028D  1803  	BTFSC gbl_status,0
028E  0F21  	INCFSZ __mul_16s__0000F_1_t+D'1', W
028F  07A3  	ADDWF CompTempVarRet389+D'1', F
0290        label51
0290  1003  	BCF gbl_status,0
0291  1283  	BCF STATUS, RP0
0292  0CFD  	RRF __mul_16s__0000F_arg_b+D'1', F
0293  0CFC  	RRF __mul_16s__0000F_arg_b, F
0294  1003  	BCF gbl_status,0
0295  1683  	BSF STATUS, RP0
0296  0DA0  	RLF __mul_16s__0000F_1_t, F
0297  0DA1  	RLF __mul_16s__0000F_1_t+D'1', F
0298  1283  	BCF STATUS, RP0
0299  0AFE  	INCF __mul_16s__0000F_1_i, F
029A  2A85  	GOTO	label50
029B        label52
029B  1FFE  	BTFSS __mul_16s__0000F_1_i,7
029C  0008  	RETURN
029D  1683  	BSF STATUS, RP0
029E  09A2  	COMF CompTempVarRet389, F
029F  09A3  	COMF CompTempVarRet389+D'1', F
02A0  0AA2  	INCF CompTempVarRet389, F
02A1  1903  	BTFSC gbl_status,2
02A2  0AA3  	INCF CompTempVarRet389+D'1', F
02A3  0008  	RETURN
02A4        ; } __mul_16s_16s__16 function end

	ORG 0x000002A4
02A4        tm1638Upda_00022
02A4        ; { tm1638UpdateDisplay ; function begin
02A4  1283  	BCF STATUS, RP0
02A5  1303  	BCF STATUS, RP1
02A6  01F3  	CLRF CompTempVar559
02A7  3002  	MOVLW 0x02
02A8  024F  	SUBWF gbl_gcDisplayMode, W
02A9  1903  	BTFSC STATUS,Z
02AA  0AF3  	INCF CompTempVar559, F
02AB  0850  	MOVF gbl_gcSetMode, W
02AC  04F3  	IORWF CompTempVar559, F
02AD  0852  	MOVF gbl_gcTriggerMode, W
02AE  0473  	IORWF CompTempVar559, W
02AF  1903  	BTFSC STATUS,Z
02B0  2C12  	GOTO	label81
02B1  0350  	DECF gbl_gcSetMode, W
02B2  1D03  	BTFSS STATUS,Z
02B3  2AC0  	GOTO	label53
02B4  3003  	MOVLW 0x03
02B5  00C8  	MOVWF gbl_iDigitToFlash
02B6  01ED  	CLRF gbl_iPrintStartDigit
02B7  3003  	MOVLW 0x03
02B8  00EE  	MOVWF gbl_iPrintDotDigit
02B9  3020  	MOVLW 0x20
02BA  00F8  	MOVWF bcdTo7Seg_00000_arg_iBcdIn
02BB  223E  	CALL bcdTo7Seg_00000
02BC  083B  	MOVF gbl_gBcdYear, W
02BD  00F8  	MOVWF bcdTo7Seg_00000_arg_iBcdIn
02BE  223E  	CALL bcdTo7Seg_00000
02BF  2C40  	GOTO	label84
02C0        label53
02C0  0850  	MOVF gbl_gcSetMode, W
02C1  3A04  	XORLW 0x04
02C2  1D03  	BTFSS STATUS,Z
02C3  2AD6  	GOTO	label54
02C4  3003  	MOVLW 0x03
02C5  00C8  	MOVWF gbl_iDigitToFlash
02C6  305E  	MOVLW 0x5E
02C7  00A0  	MOVWF gbl_tm1638Data
02C8  305F  	MOVLW 0x5F
02C9  00A1  	MOVWF gbl_tm1638Data+D'1'
02CA  306E  	MOVLW 0x6E
02CB  00A2  	MOVWF gbl_tm1638Data+D'2'
02CC  0864  	MOVF gbl_tm1638DisplayNumtoSeg, W
02CD  00FB  	MOVWF __rom_get_00000_arg_objNumb
02CE  0838  	MOVF gbl_gDayOfWeek, W
02CF  00FC  	MOVWF __rom_get_00000_arg_idx
02D0  201A  	CALL __rom_get_00000
02D1  0765  	ADDWF gbl_tm1638Dot, W
02D2  00A3  	MOVWF gbl_tm1638Data+D'3'
02D3  118A  	BCF PCLATH,3
02D4  120A  	BCF PCLATH,4
02D5  2C40  	GOTO	label84
02D6        label54
02D6  0850  	MOVF gbl_gcSetMode, W
02D7  3A05  	XORLW 0x05
02D8  1D03  	BTFSS STATUS,Z
02D9  2AEC  	GOTO	label57
02DA  3001  	MOVLW 0x01
02DB  00C8  	MOVWF gbl_iDigitToFlash
02DC  08D1  	MOVF gbl_gcHourMode, F
02DD  1903  	BTFSC STATUS,Z
02DE  2AE4  	GOTO	label55
02DF  3006  	MOVLW 0x06
02E0  00A0  	MOVWF gbl_tm1638Data
02E1  305B  	MOVLW 0x5B
02E2  00A1  	MOVWF gbl_tm1638Data+D'1'
02E3  2AE8  	GOTO	label56
02E4        label55
02E4  305B  	MOVLW 0x5B
02E5  00A0  	MOVWF gbl_tm1638Data
02E6  3066  	MOVLW 0x66
02E7  00A1  	MOVWF gbl_tm1638Data+D'1'
02E8        label56
02E8  3074  	MOVLW 0x74
02E9  00A2  	MOVWF gbl_tm1638Data+D'2'
02EA  01A3  	CLRF gbl_tm1638Data+D'3'
02EB  2C40  	GOTO	label84
02EC        label57
02EC  08D2  	MOVF gbl_gcTriggerMode, F
02ED  1903  	BTFSC STATUS,Z
02EE  2BE5  	GOTO	label74
02EF  3005  	MOVLW 0x05
02F0  00EE  	MOVWF gbl_iPrintDotDigit
02F1  0852  	MOVF gbl_gcTriggerMode, W
02F2  3A01  	XORLW 0x01
02F3  1903  	BTFSC STATUS,Z
02F4  2B23  	GOTO	label58
02F5  3A03  	XORLW 0x03
02F6  1903  	BTFSC STATUS,Z
02F7  2B35  	GOTO	label59
02F8  3A01  	XORLW 0x01
02F9  1903  	BTFSC STATUS,Z
02FA  2B3D  	GOTO	label60
02FB  3A07  	XORLW 0x07
02FC  1903  	BTFSC STATUS,Z
02FD  2B4A  	GOTO	label61
02FE  3A01  	XORLW 0x01
02FF  1903  	BTFSC STATUS,Z
0300  2B52  	GOTO	label62
0301  3A03  	XORLW 0x03
0302  1903  	BTFSC STATUS,Z
0303  2B63  	GOTO	label63
0304  3A01  	XORLW 0x01
0305  1903  	BTFSC STATUS,Z
0306  2B6B  	GOTO	label64
0307  3A0F  	XORLW 0x0F
0308  1903  	BTFSC STATUS,Z
0309  2B78  	GOTO	label65
030A  3A01  	XORLW 0x01
030B  1903  	BTFSC STATUS,Z
030C  2B80  	GOTO	label66
030D  3A03  	XORLW 0x03
030E  1903  	BTFSC STATUS,Z
030F  2B91  	GOTO	label67
0310  3A01  	XORLW 0x01
0311  1903  	BTFSC STATUS,Z
0312  2B99  	GOTO	label68
0313  3A07  	XORLW 0x07
0314  1903  	BTFSC STATUS,Z
0315  2BA6  	GOTO	label69
0316  3A01  	XORLW 0x01
0317  1903  	BTFSC STATUS,Z
0318  2BAE  	GOTO	label70
0319  3A03  	XORLW 0x03
031A  1903  	BTFSC STATUS,Z
031B  2BC1  	GOTO	label71
031C  3A01  	XORLW 0x01
031D  1903  	BTFSC STATUS,Z
031E  2BC9  	GOTO	label72
031F  3A1F  	XORLW 0x1F
0320  1903  	BTFSC STATUS,Z
0321  2BDD  	GOTO	label73
0322  2C40  	GOTO	label84
0323        label58
0323  3038  	MOVLW 0x38
0324  00A0  	MOVWF gbl_tm1638Data
0325  01A1  	CLRF gbl_tm1638Data+D'1'
0326  303F  	MOVLW 0x3F
0327  00A2  	MOVWF gbl_tm1638Data+D'2'
0328  3054  	MOVLW 0x54
0329  00A3  	MOVWF gbl_tm1638Data+D'3'
032A  3005  	MOVLW 0x05
032B  00C8  	MOVWF gbl_iDigitToFlash
032C  3004  	MOVLW 0x04
032D  00ED  	MOVWF gbl_iPrintStartDigit
032E  0854  	MOVF gbl_gBcdWhiteOnHour, W
032F  00F8  	MOVWF bcdTo7Seg_00000_arg_iBcdIn
0330  223E  	CALL bcdTo7Seg_00000
0331  0853  	MOVF gbl_gBcdWhiteOnMinute, W
0332  00F8  	MOVWF bcdTo7Seg_00000_arg_iBcdIn
0333  223E  	CALL bcdTo7Seg_00000
0334  2C40  	GOTO	label84
0335        label59
0335  3007  	MOVLW 0x07
0336  00C8  	MOVWF gbl_iDigitToFlash
0337  3006  	MOVLW 0x06
0338  00ED  	MOVWF gbl_iPrintStartDigit
0339  0853  	MOVF gbl_gBcdWhiteOnMinute, W
033A  00F8  	MOVWF bcdTo7Seg_00000_arg_iBcdIn
033B  223E  	CALL bcdTo7Seg_00000
033C  2C40  	GOTO	label84
033D        label60
033D  3071  	MOVLW 0x71
033E  00A3  	MOVWF gbl_tm1638Data+D'3'
033F  3005  	MOVLW 0x05
0340  00C8  	MOVWF gbl_iDigitToFlash
0341  3004  	MOVLW 0x04
0342  00ED  	MOVWF gbl_iPrintStartDigit
0343  0856  	MOVF gbl_gBcdWhiteOffHour, W
0344  00F8  	MOVWF bcdTo7Seg_00000_arg_iBcdIn
0345  223E  	CALL bcdTo7Seg_00000
0346  0855  	MOVF gbl_gBcdWhiteOffMinute, W
0347  00F8  	MOVWF bcdTo7Seg_00000_arg_iBcdIn
0348  223E  	CALL bcdTo7Seg_00000
0349  2C40  	GOTO	label84
034A        label61
034A  3007  	MOVLW 0x07
034B  00C8  	MOVWF gbl_iDigitToFlash
034C  3006  	MOVLW 0x06
034D  00ED  	MOVWF gbl_iPrintStartDigit
034E  0855  	MOVF gbl_gBcdWhiteOffMinute, W
034F  00F8  	MOVWF bcdTo7Seg_00000_arg_iBcdIn
0350  223E  	CALL bcdTo7Seg_00000
0351  2C40  	GOTO	label84
0352        label62
0352  307C  	MOVLW 0x7C
0353  00A0  	MOVWF gbl_tm1638Data
0354  3006  	MOVLW 0x06
0355  00A1  	MOVWF gbl_tm1638Data+D'1'
0356  3054  	MOVLW 0x54
0357  00A3  	MOVWF gbl_tm1638Data+D'3'
0358  3005  	MOVLW 0x05
0359  00C8  	MOVWF gbl_iDigitToFlash
035A  3004  	MOVLW 0x04
035B  00ED  	MOVWF gbl_iPrintStartDigit
035C  0858  	MOVF gbl_gBcdBlueOnHour, W
035D  00F8  	MOVWF bcdTo7Seg_00000_arg_iBcdIn
035E  223E  	CALL bcdTo7Seg_00000
035F  0857  	MOVF gbl_gBcdBlueOnMinute, W
0360  00F8  	MOVWF bcdTo7Seg_00000_arg_iBcdIn
0361  223E  	CALL bcdTo7Seg_00000
0362  2C40  	GOTO	label84
0363        label63
0363  3007  	MOVLW 0x07
0364  00C8  	MOVWF gbl_iDigitToFlash
0365  3006  	MOVLW 0x06
0366  00ED  	MOVWF gbl_iPrintStartDigit
0367  0857  	MOVF gbl_gBcdBlueOnMinute, W
0368  00F8  	MOVWF bcdTo7Seg_00000_arg_iBcdIn
0369  223E  	CALL bcdTo7Seg_00000
036A  2C40  	GOTO	label84
036B        label64
036B  3071  	MOVLW 0x71
036C  00A3  	MOVWF gbl_tm1638Data+D'3'
036D  3005  	MOVLW 0x05
036E  00C8  	MOVWF gbl_iDigitToFlash
036F  3004  	MOVLW 0x04
0370  00ED  	MOVWF gbl_iPrintStartDigit
0371  085A  	MOVF gbl_gBcdBlueOffHour, W
0372  00F8  	MOVWF bcdTo7Seg_00000_arg_iBcdIn
0373  223E  	CALL bcdTo7Seg_00000
0374  0859  	MOVF gbl_gBcdBlueOffMinute, W
0375  00F8  	MOVWF bcdTo7Seg_00000_arg_iBcdIn
0376  223E  	CALL bcdTo7Seg_00000
0377  2C40  	GOTO	label84
0378        label65
0378  3007  	MOVLW 0x07
0379  00C8  	MOVWF gbl_iDigitToFlash
037A  3006  	MOVLW 0x06
037B  00ED  	MOVWF gbl_iPrintStartDigit
037C  0859  	MOVF gbl_gBcdBlueOffMinute, W
037D  00F8  	MOVWF bcdTo7Seg_00000_arg_iBcdIn
037E  223E  	CALL bcdTo7Seg_00000
037F  2C40  	GOTO	label84
0380        label66
0380  307C  	MOVLW 0x7C
0381  00A0  	MOVWF gbl_tm1638Data
0382  305B  	MOVLW 0x5B
0383  00A1  	MOVWF gbl_tm1638Data+D'1'
0384  3054  	MOVLW 0x54
0385  00A3  	MOVWF gbl_tm1638Data+D'3'
0386  3005  	MOVLW 0x05
0387  00C8  	MOVWF gbl_iDigitToFlash
0388  3004  	MOVLW 0x04
0389  00ED  	MOVWF gbl_iPrintStartDigit
038A  085C  	MOVF gbl_gBcdBlue2OnHour, W
038B  00F8  	MOVWF bcdTo7Seg_00000_arg_iBcdIn
038C  223E  	CALL bcdTo7Seg_00000
038D  085B  	MOVF gbl_gBcdBlue2OnMinute, W
038E  00F8  	MOVWF bcdTo7Seg_00000_arg_iBcdIn
038F  223E  	CALL bcdTo7Seg_00000
0390  2C40  	GOTO	label84
0391        label67
0391  3007  	MOVLW 0x07
0392  00C8  	MOVWF gbl_iDigitToFlash
0393  3006  	MOVLW 0x06
0394  00ED  	MOVWF gbl_iPrintStartDigit
0395  085B  	MOVF gbl_gBcdBlue2OnMinute, W
0396  00F8  	MOVWF bcdTo7Seg_00000_arg_iBcdIn
0397  223E  	CALL bcdTo7Seg_00000
0398  2C40  	GOTO	label84
0399        label68
0399  3071  	MOVLW 0x71
039A  00A3  	MOVWF gbl_tm1638Data+D'3'
039B  3005  	MOVLW 0x05
039C  00C8  	MOVWF gbl_iDigitToFlash
039D  3004  	MOVLW 0x04
039E  00ED  	MOVWF gbl_iPrintStartDigit
039F  085E  	MOVF gbl_gBcdBlue2OffHour, W
03A0  00F8  	MOVWF bcdTo7Seg_00000_arg_iBcdIn
03A1  223E  	CALL bcdTo7Seg_00000
03A2  085D  	MOVF gbl_gBcdBlue2OffMinute, W
03A3  00F8  	MOVWF bcdTo7Seg_00000_arg_iBcdIn
03A4  223E  	CALL bcdTo7Seg_00000
03A5  2C40  	GOTO	label84
03A6        label69
03A6  3007  	MOVLW 0x07
03A7  00C8  	MOVWF gbl_iDigitToFlash
03A8  3006  	MOVLW 0x06
03A9  00ED  	MOVWF gbl_iPrintStartDigit
03AA  085D  	MOVF gbl_gBcdBlue2OffMinute, W
03AB  00F8  	MOVWF bcdTo7Seg_00000_arg_iBcdIn
03AC  223E  	CALL bcdTo7Seg_00000
03AD  2C40  	GOTO	label84
03AE        label70
03AE  3071  	MOVLW 0x71
03AF  00A0  	MOVWF gbl_tm1638Data
03B0  305F  	MOVLW 0x5F
03B1  00A1  	MOVWF gbl_tm1638Data+D'1'
03B2  3054  	MOVLW 0x54
03B3  00A2  	MOVWF gbl_tm1638Data+D'2'
03B4  01A3  	CLRF gbl_tm1638Data+D'3'
03B5  303F  	MOVLW 0x3F
03B6  00A4  	MOVWF gbl_tm1638Data+D'4'
03B7  3054  	MOVLW 0x54
03B8  00A5  	MOVWF gbl_tm1638Data+D'5'
03B9  3007  	MOVLW 0x07
03BA  00C8  	MOVWF gbl_iDigitToFlash
03BB  3006  	MOVLW 0x06
03BC  00ED  	MOVWF gbl_iPrintStartDigit
03BD  085F  	MOVF gbl_gBcdFanOnTemp, W
03BE  00F8  	MOVWF bcdTo7Seg_00000_arg_iBcdIn
03BF  223E  	CALL bcdTo7Seg_00000
03C0  2C40  	GOTO	label84
03C1        label71
03C1  3071  	MOVLW 0x71
03C2  00A5  	MOVWF gbl_tm1638Data+D'5'
03C3  3006  	MOVLW 0x06
03C4  00ED  	MOVWF gbl_iPrintStartDigit
03C5  0860  	MOVF gbl_gBcdFanOffTemp, W
03C6  00F8  	MOVWF bcdTo7Seg_00000_arg_iBcdIn
03C7  223E  	CALL bcdTo7Seg_00000
03C8  2C40  	GOTO	label84
03C9        label72
03C9  3076  	MOVLW 0x76
03CA  00A0  	MOVWF gbl_tm1638Data
03CB  307B  	MOVLW 0x7B
03CC  00A1  	MOVWF gbl_tm1638Data+D'1'
03CD  305F  	MOVLW 0x5F
03CE  00A2  	MOVWF gbl_tm1638Data+D'2'
03CF  3078  	MOVLW 0x78
03D0  00A3  	MOVWF gbl_tm1638Data+D'3'
03D1  303F  	MOVLW 0x3F
03D2  00A4  	MOVWF gbl_tm1638Data+D'4'
03D3  3054  	MOVLW 0x54
03D4  00A5  	MOVWF gbl_tm1638Data+D'5'
03D5  3007  	MOVLW 0x07
03D6  00C8  	MOVWF gbl_iDigitToFlash
03D7  3006  	MOVLW 0x06
03D8  00ED  	MOVWF gbl_iPrintStartDigit
03D9  0861  	MOVF gbl_gBcdHeaterOnTemp, W
03DA  00F8  	MOVWF bcdTo7Seg_00000_arg_iBcdIn
03DB  223E  	CALL bcdTo7Seg_00000
03DC  2C40  	GOTO	label84
03DD        label73
03DD  3071  	MOVLW 0x71
03DE  00A5  	MOVWF gbl_tm1638Data+D'5'
03DF  3006  	MOVLW 0x06
03E0  00ED  	MOVWF gbl_iPrintStartDigit
03E1  0862  	MOVF gbl_gBcdHeaterOffTemp, W
03E2  00F8  	MOVWF bcdTo7Seg_00000_arg_iBcdIn
03E3  223E  	CALL bcdTo7Seg_00000
03E4  2C40  	GOTO	label84
03E5        label74
03E5  0850  	MOVF gbl_gcSetMode, W
03E6  3A02  	XORLW 0x02
03E7  1903  	BTFSC STATUS,Z
03E8  2BF3  	GOTO	label75
03E9  3A01  	XORLW 0x01
03EA  1903  	BTFSC STATUS,Z
03EB  2BF6  	GOTO	label76
03EC  3A05  	XORLW 0x05
03ED  1903  	BTFSC STATUS,Z
03EE  2BF9  	GOTO	label77
03EF  3A01  	XORLW 0x01
03F0  1903  	BTFSC STATUS,Z
03F1  2BFC  	GOTO	label78
03F2  2BFF  	GOTO	label79
03F3        label75
03F3  3003  	MOVLW 0x03
03F4  00C8  	MOVWF gbl_iDigitToFlash
03F5  2C01  	GOTO	label80
03F6        label76
03F6  3001  	MOVLW 0x01
03F7  00C8  	MOVWF gbl_iDigitToFlash
03F8  2C01  	GOTO	label80
03F9        label77
03F9  3005  	MOVLW 0x05
03FA  00C8  	MOVWF gbl_iDigitToFlash
03FB  2C01  	GOTO	label80
03FC        label78
03FC  3007  	MOVLW 0x07
03FD  00C8  	MOVWF gbl_iDigitToFlash
03FE  2C01  	GOTO	label80
03FF        label79
03FF  3008  	MOVLW 0x08
0400  00C8  	MOVWF gbl_iDigitToFlash
0401        label80
0401  01ED  	CLRF gbl_iPrintStartDigit
0402  3001  	MOVLW 0x01
0403  00EE  	MOVWF gbl_iPrintDotDigit
0404  0839  	MOVF gbl_gBcdDayOfMonth, W
0405  00F8  	MOVWF bcdTo7Seg_00000_arg_iBcdIn
0406  223E  	CALL bcdTo7Seg_00000
0407  01F8  	CLRF zeroToBlan_00025_arg_iDigit
0408  215B  	CALL zeroToBlan_00025
0409  3003  	MOVLW 0x03
040A  00EE  	MOVWF gbl_iPrintDotDigit
040B  083A  	MOVF gbl_gBcdMonth, W
040C  00F8  	MOVWF bcdTo7Seg_00000_arg_iBcdIn
040D  223E  	CALL bcdTo7Seg_00000
040E  3002  	MOVLW 0x02
040F  00F8  	MOVWF zeroToBlan_00025_arg_iDigit
0410  215B  	CALL zeroToBlan_00025
0411  2C40  	GOTO	label84
0412        label81
0412  3008  	MOVLW 0x08
0413  00C8  	MOVWF gbl_iDigitToFlash
0414  3001  	MOVLW 0x01
0415  00EE  	MOVWF gbl_iPrintDotDigit
0416  034F  	DECF gbl_gcDisplayMode, W
0417  1D03  	BTFSS STATUS,Z
0418  2C1B  	GOTO	label82
0419  3002  	MOVLW 0x02
041A  00EE  	MOVWF gbl_iPrintDotDigit
041B        label82
041B  08CC  	MOVF gbl_gbDS3231IsMinus, F
041C  1903  	BTFSC STATUS,Z
041D  2C30  	GOTO	label83
041E  30F0  	MOVLW 0xF0
041F  0534  	ANDWF gbl_giDS3231ValueBCD+D'1', W
0420  1903  	BTFSC STATUS,Z
0421  2C30  	GOTO	label83
0422  0D34  	RLF gbl_giDS3231ValueBCD+D'1', W
0423  0CB4  	RRF gbl_giDS3231ValueBCD+D'1', F
0424  0CB3  	RRF gbl_giDS3231ValueBCD, F
0425  0D34  	RLF gbl_giDS3231ValueBCD+D'1', W
0426  0CB4  	RRF gbl_giDS3231ValueBCD+D'1', F
0427  0CB3  	RRF gbl_giDS3231ValueBCD, F
0428  0D34  	RLF gbl_giDS3231ValueBCD+D'1', W
0429  0CB4  	RRF gbl_giDS3231ValueBCD+D'1', F
042A  0CB3  	RRF gbl_giDS3231ValueBCD, F
042B  0D34  	RLF gbl_giDS3231ValueBCD+D'1', W
042C  0CB4  	RRF gbl_giDS3231ValueBCD+D'1', F
042D  0CB3  	RRF gbl_giDS3231ValueBCD, F
042E  3002  	MOVLW 0x02
042F  00EE  	MOVWF gbl_iPrintDotDigit
0430        label83
0430  01ED  	CLRF gbl_iPrintStartDigit
0431  0834  	MOVF gbl_giDS3231ValueBCD+D'1', W
0432  00F8  	MOVWF bcdTo7Seg_00000_arg_iBcdIn
0433  223E  	CALL bcdTo7Seg_00000
0434  0833  	MOVF gbl_giDS3231ValueBCD, W
0435  00F8  	MOVWF bcdTo7Seg_00000_arg_iBcdIn
0436  223E  	CALL bcdTo7Seg_00000
0437  0865  	MOVF gbl_tm1638Dot, W
0438  04A3  	IORWF gbl_tm1638Data+D'3', F
0439  01F8  	CLRF zeroToBlan_00025_arg_iDigit
043A  215B  	CALL zeroToBlan_00025
043B  08CC  	MOVF gbl_gbDS3231IsMinus, F
043C  1903  	BTFSC STATUS,Z
043D  2C40  	GOTO	label84
043E  3040  	MOVLW 0x40
043F  00A0  	MOVWF gbl_tm1638Data
0440        label84
0440  08D2  	MOVF gbl_gcTriggerMode, F
0441  1D03  	BTFSS STATUS,Z
0442  2C7A  	GOTO	label90
0443  3004  	MOVLW 0x04
0444  00ED  	MOVWF gbl_iPrintStartDigit
0445  1C35  	BTFSS gbl_gBcdSecond,0
0446  2C4A  	GOTO	label85
0447  3005  	MOVLW 0x05
0448  00EE  	MOVWF gbl_iPrintDotDigit
0449  2C4C  	GOTO	label86
044A        label85
044A  3008  	MOVLW 0x08
044B  00EE  	MOVWF gbl_iPrintDotDigit
044C        label86
044C  0837  	MOVF gbl_gBcdHour, W
044D  00F7  	MOVWF tm1638Upda_00022_198_cBcdH_00024
044E  08D1  	MOVF gbl_gcHourMode, F
044F  1903  	BTFSC STATUS,Z
0450  2C60  	GOTO	label87
0451  0837  	MOVF gbl_gBcdHour, W
0452  3C12  	SUBLW 0x12
0453  1803  	BTFSC STATUS,C
0454  2C60  	GOTO	label87
0455  3012  	MOVLW 0x12
0456  02F7  	SUBWF tm1638Upda_00022_198_cBcdH_00024, F
0457  300F  	MOVLW 0x0F
0458  0577  	ANDWF tm1638Upda_00022_198_cBcdH_00024, W
0459  00F8  	MOVWF CompTempVar599
045A  0878  	MOVF CompTempVar599, W
045B  3C07  	SUBLW 0x07
045C  1803  	BTFSC STATUS,C
045D  2C60  	GOTO	label87
045E  3006  	MOVLW 0x06
045F  02F7  	SUBWF tm1638Upda_00022_198_cBcdH_00024, F
0460        label87
0460  08D1  	MOVF gbl_gcHourMode, F
0461  1903  	BTFSC STATUS,Z
0462  2C68  	GOTO	label88
0463  08B7  	MOVF gbl_gBcdHour, F
0464  1D03  	BTFSS STATUS,Z
0465  2C68  	GOTO	label88
0466  3012  	MOVLW 0x12
0467  00F7  	MOVWF tm1638Upda_00022_198_cBcdH_00024
0468        label88
0468  0877  	MOVF tm1638Upda_00022_198_cBcdH_00024, W
0469  00F8  	MOVWF bcdTo7Seg_00000_arg_iBcdIn
046A  223E  	CALL bcdTo7Seg_00000
046B  3004  	MOVLW 0x04
046C  00F8  	MOVWF zeroToBlan_00025_arg_iDigit
046D  215B  	CALL zeroToBlan_00025
046E  08D1  	MOVF gbl_gcHourMode, F
046F  1903  	BTFSC STATUS,Z
0470  2C77  	GOTO	label89
0471  0837  	MOVF gbl_gBcdHour, W
0472  3C11  	SUBLW 0x11
0473  1803  	BTFSC STATUS,C
0474  2C77  	GOTO	label89
0475  3007  	MOVLW 0x07
0476  00EE  	MOVWF gbl_iPrintDotDigit
0477        label89
0477  0836  	MOVF gbl_gBcdMinute, W
0478  00F8  	MOVWF bcdTo7Seg_00000_arg_iBcdIn
0479  223E  	CALL bcdTo7Seg_00000
047A        label90
047A  0850  	MOVF gbl_gcSetMode, W
047B  00F4  	MOVWF tm1638Upda_00022_1_cCompar_00023
047C  3002  	MOVLW 0x02
047D  00F6  	MOVWF tm1638Upda_00022_3_i
047E        label91
047E  3008  	MOVLW 0x08
047F  0276  	SUBWF tm1638Upda_00022_3_i, W
0480  1803  	BTFSC STATUS,C
0481  2C97  	GOTO	label94
0482  0874  	MOVF tm1638Upda_00022_1_cCompar_00023, W
0483  0676  	XORWF tm1638Upda_00022_3_i, W
0484  1D03  	BTFSS STATUS,Z
0485  2C8E  	GOTO	label92
0486  1383  	BCF	STATUS,IRP
0487  3028  	MOVLW LOW(gbl_tm1638LEDs+D'0')
0488  0084  	MOVWF FSR
0489  0876  	MOVF tm1638Upda_00022_3_i, W
048A  0784  	ADDWF FSR, F
048B  3001  	MOVLW 0x01
048C  0080  	MOVWF INDF
048D  2C95  	GOTO	label93
048E        label92
048E  1383  	BCF	STATUS,IRP
048F  3028  	MOVLW LOW(gbl_tm1638LEDs+D'0')
0490  0084  	MOVWF FSR
0491  0876  	MOVF tm1638Upda_00022_3_i, W
0492  0784  	ADDWF FSR, F
0493  3000  	MOVLW 0x00
0494  0080  	MOVWF INDF
0495        label93
0495  0AF6  	INCF tm1638Upda_00022_3_i, F
0496  2C7E  	GOTO	label91
0497        label94
0497  01A8  	CLRF gbl_tm1638LEDs
0498  1805  	BTFSC gbl_porta,0
0499  0AA8  	INCF gbl_tm1638LEDs, F
049A  01A9  	CLRF gbl_tm1638LEDs+D'1'
049B  1885  	BTFSC gbl_porta,1
049C  0AA9  	INCF gbl_tm1638LEDs+D'1', F
049D  1186  	BCF gbl_portb,3
049E  0867  	MOVF gbl_tm1638ByteSetData, W
049F  00F6  	MOVWF tm1638Byte_0001F_arg_bWrite
04A0  216C  	CALL tm1638Byte_0001F
04A1  1586  	BSF gbl_portb,3
04A2  1186  	BCF gbl_portb,3
04A3  0869  	MOVF gbl_tm1638ByteSetAddr, W
04A4  00F6  	MOVWF tm1638Byte_0001F_arg_bWrite
04A5  216C  	CALL tm1638Byte_0001F
04A6  01F5  	CLRF tm1638Upda_00022_2_i
04A7        label95
04A7  0863  	MOVF gbl_tm1638MaxDigits, W
04A8  0275  	SUBWF tm1638Upda_00022_2_i, W
04A9  1803  	BTFSC STATUS,C
04AA  2CC6  	GOTO	label98
04AB  1C3F  	BTFSS gbl_iFlashDigitOff,0
04AC  2CB4  	GOTO	label96
04AD  0848  	MOVF gbl_iDigitToFlash, W
04AE  0675  	XORWF tm1638Upda_00022_2_i, W
04AF  1D03  	BTFSS STATUS,Z
04B0  2CB4  	GOTO	label96
04B1  01F6  	CLRF tm1638Byte_0001F_arg_bWrite
04B2  216C  	CALL tm1638Byte_0001F
04B3  2CBC  	GOTO	label97
04B4        label96
04B4  1383  	BCF	STATUS,IRP
04B5  3020  	MOVLW LOW(gbl_tm1638Data+D'0')
04B6  0084  	MOVWF FSR
04B7  0875  	MOVF tm1638Upda_00022_2_i, W
04B8  0784  	ADDWF FSR, F
04B9  0800  	MOVF INDF, W
04BA  00F6  	MOVWF tm1638Byte_0001F_arg_bWrite
04BB  216C  	CALL tm1638Byte_0001F
04BC        label97
04BC  1383  	BCF	STATUS,IRP
04BD  3028  	MOVLW LOW(gbl_tm1638LEDs+D'0')
04BE  0084  	MOVWF FSR
04BF  0875  	MOVF tm1638Upda_00022_2_i, W
04C0  0784  	ADDWF FSR, F
04C1  0800  	MOVF INDF, W
04C2  00F6  	MOVWF tm1638Byte_0001F_arg_bWrite
04C3  216C  	CALL tm1638Byte_0001F
04C4  0AF5  	INCF tm1638Upda_00022_2_i, F
04C5  2CA7  	GOTO	label95
04C6        label98
04C6  1586  	BSF gbl_portb,3
04C7  0008  	RETURN
04C8        ; } tm1638UpdateDisplay function end

	ORG 0x000004C8
04C8        tm1638Disp_00021
04C8        ; { tm1638DisplayOn ; function begin
04C8  1283  	BCF STATUS, RP0
04C9  1303  	BCF STATUS, RP1
04CA  1186  	BCF gbl_portb,3
04CB  3088  	MOVLW 0x88
04CC  00F6  	MOVWF tm1638Byte_0001F_arg_bWrite
04CD  216C  	CALL tm1638Byte_0001F
04CE  1586  	BSF gbl_portb,3
04CF  0008  	RETURN
04D0        ; } tm1638DisplayOn function end

	ORG 0x000004D0
04D0        oneWireTxB_00019
04D0        ; { oneWireTxBytes ; function begin
04D0  0872  	MOVF oneWireTxB_00019_arg_cData, W
04D1  00F4  	MOVWF oneWireTxB_00018_arg_cData
04D2  217F  	CALL oneWireTxB_00018
04D3  0873  	MOVF oneWireTxB_00019_arg_cData2, W
04D4  00F4  	MOVWF oneWireTxB_00018_arg_cData
04D5  217F  	CALL oneWireTxB_00018
04D6  0008  	RETURN
04D7        ; } oneWireTxBytes function end

	ORG 0x000004D7
04D7        oneWireRxB_0001A
04D7        ; { oneWireRxByte ; function begin
04D7  1283  	BCF STATUS, RP0
04D8  1303  	BCF STATUS, RP1
04D9  01F2  	CLRF oneWireRxB_0001A_1_cDataIn
04DA  01F3  	CLRF oneWireRxB_0001A_2_i
04DB        label99
04DB  3008  	MOVLW 0x08
04DC  0273  	SUBWF oneWireRxB_0001A_2_i, W
04DD  1803  	BTFSC STATUS,C
04DE  2CF2  	GOTO	label100
04DF  1683  	BSF STATUS, RP0
04E0  1287  	BCF gbl_trisc,5
04E1  1283  	BCF STATUS, RP0
04E2  1287  	BCF gbl_portc,5
04E3  1683  	BSF STATUS, RP0
04E4  1687  	BSF gbl_trisc,5
04E5  3003  	MOVLW 0x03
04E6  1283  	BCF STATUS, RP0
04E7  00F8  	MOVWF delay_us_00000_arg_del
04E8  2010  	CALL delay_us_00000
04E9  1003  	BCF STATUS,C
04EA  0CF2  	RRF oneWireRxB_0001A_1_cDataIn, F
04EB  1A87  	BTFSC gbl_portc,5
04EC  17F2  	BSF oneWireRxB_0001A_1_cDataIn,7
04ED  3006  	MOVLW 0x06
04EE  00F7  	MOVWF delay_10us_00000_arg_del
04EF  2077  	CALL delay_10us_00000
04F0  0AF3  	INCF oneWireRxB_0001A_2_i, F
04F1  2CDB  	GOTO	label99
04F2        label100
04F2  0872  	MOVF oneWireRxB_0001A_1_cDataIn, W
04F3  00F3  	MOVWF CompTempVarRet551
04F4  0008  	RETURN
04F5        ; } oneWireRxByte function end

	ORG 0x000004F5
04F5        i2c_INIT_00000
04F5        ; { i2c_INIT ; function begin
04F5  1683  	BSF STATUS, RP0
04F6  1607  	BSF i2c_INIT_00000_1_l_sda_tris,4
04F7  1587  	BSF i2c_INIT_00000_1_l_scl_tris,3
04F8  1283  	BCF STATUS, RP0
04F9  01C0  	CLRF i2c_INIT_00000_1_i2c_SSPCON1
04FA  0873  	MOVF i2c_INIT_00000_arg_i2c_divisor, W
04FB  00C3  	MOVWF i2c_INIT_00000_1_i2c_SSPADD
04FC  3008  	MOVLW 0x08
04FD  00C0  	MOVWF i2c_INIT_00000_1_i2c_SSPCON1
04FE  01C1  	CLRF i2c_INIT_00000_1_i2c_SSPCON2
04FF  01C2  	CLRF i2c_INIT_00000_1_i2c_SSPSTAT
0500  17C2  	BSF i2c_INIT_00000_1_l_smp,7
0501  11C5  	BCF i2c_INIT_00000_1_l_sspif,3
0502  11C6  	BCF i2c_INIT_00000_1_l_bclif,3
0503  1207  	BCF i2c_INIT_00000_1_l_sda,4
0504  1187  	BCF i2c_INIT_00000_1_l_scl,3
0505  16C0  	BSF i2c_INIT_00000_1_l_sspen,5
0506  20F6  	CALL i2c_STOP_00000
0507  0008  	RETURN
0508        ; } i2c_INIT function end

	ORG 0x00000508
0508        ds3231Writ_0001C
0508        ; { ds3231WriteDateTime ; function begin
0508  2126  	CALL i2c_START_00000
0509  30D0  	MOVLW 0xD0
050A  00F5  	MOVWF i2c_WRITE_00000_arg_i2c_data
050B  20A5  	CALL i2c_WRITE_00000
050C  01F5  	CLRF i2c_WRITE_00000_arg_i2c_data
050D  20A5  	CALL i2c_WRITE_00000
050E  01F5  	CLRF i2c_WRITE_00000_arg_i2c_data
050F  20A5  	CALL i2c_WRITE_00000
0510  0836  	MOVF gbl_gBcdMinute, W
0511  00F5  	MOVWF i2c_WRITE_00000_arg_i2c_data
0512  20A5  	CALL i2c_WRITE_00000
0513  0837  	MOVF gbl_gBcdHour, W
0514  00F5  	MOVWF i2c_WRITE_00000_arg_i2c_data
0515  20A5  	CALL i2c_WRITE_00000
0516  0838  	MOVF gbl_gDayOfWeek, W
0517  00F5  	MOVWF i2c_WRITE_00000_arg_i2c_data
0518  20A5  	CALL i2c_WRITE_00000
0519  0839  	MOVF gbl_gBcdDayOfMonth, W
051A  00F5  	MOVWF i2c_WRITE_00000_arg_i2c_data
051B  20A5  	CALL i2c_WRITE_00000
051C  083A  	MOVF gbl_gBcdMonth, W
051D  00F5  	MOVWF i2c_WRITE_00000_arg_i2c_data
051E  20A5  	CALL i2c_WRITE_00000
051F  083B  	MOVF gbl_gBcdYear, W
0520  00F5  	MOVWF i2c_WRITE_00000_arg_i2c_data
0521  20A5  	CALL i2c_WRITE_00000
0522  20F6  	CALL i2c_STOP_00000
0523  0008  	RETURN
0524        ; } ds3231WriteDateTime function end

	ORG 0x00000524
0524        ds3231Read_0001E
0524        ; { ds3231ReadRegister ; function begin
0524  2126  	CALL i2c_START_00000
0525  30D0  	MOVLW 0xD0
0526  00F5  	MOVWF i2c_WRITE_00000_arg_i2c_data
0527  20A5  	CALL i2c_WRITE_00000
0528  0873  	MOVF ds3231Read_0001E_arg_cRegAddress, W
0529  00F5  	MOVWF i2c_WRITE_00000_arg_i2c_data
052A  20A5  	CALL i2c_WRITE_00000
052B  20F6  	CALL i2c_STOP_00000
052C  2126  	CALL i2c_START_00000
052D  30D1  	MOVLW 0xD1
052E  00F5  	MOVWF i2c_WRITE_00000_arg_i2c_data
052F  20A5  	CALL i2c_WRITE_00000
0530  3001  	MOVLW 0x01
0531  00F5  	MOVWF i2c_READ_00000_arg_ack_status
0532  21DE  	CALL i2c_READ_00000
0533  0878  	MOVF CompTempVarRet553, W
0534  00F4  	MOVWF ds3231Read_0001E_1_cStatus
0535  20F6  	CALL i2c_STOP_00000
0536  0874  	MOVF ds3231Read_0001E_1_cStatus, W
0537  00F5  	MOVWF CompTempVarRet554
0538  0008  	RETURN
0539        ; } ds3231ReadRegister function end

	ORG 0x00000539
0539        ds3231Init_00000
0539        ; { ds3231Init ; function begin
0539  300E  	MOVLW 0x0E
053A  1283  	BCF STATUS, RP0
053B  1303  	BCF STATUS, RP1
053C  00F3  	MOVWF ds3231Writ_0001B_arg_ds3231Reg
053D  01F4  	CLRF ds3231Writ_0001B_arg_bWrite
053E  2232  	CALL ds3231Writ_0001B
053F  300F  	MOVLW 0x0F
0540  00F3  	MOVWF ds3231Writ_0001B_arg_ds3231Reg
0541  01F4  	CLRF ds3231Writ_0001B_arg_bWrite
0542  2232  	CALL ds3231Writ_0001B
0543  0008  	RETURN
0544        ; } ds3231Init function end

	ORG 0x00000544
0544        convertTem_0002B
0544        ; { convertTemp ; function begin
0544  1283  	BCF STATUS, RP0
0545  1303  	BCF STATUS, RP1
0546  01F2  	CLRF convertTem_0002B_1_iTemp
0547  0849  	MOVF gbl_cTempH, W
0548  00F3  	MOVWF convertTem_0002B_1_iTemp+D'1'
0549  084A  	MOVF gbl_cTempL, W
054A  04F2  	IORWF convertTem_0002B_1_iTemp, F
054B  0872  	MOVF convertTem_0002B_1_iTemp, W
054C  00F4  	MOVWF convertTem_0002B_1_iTemp2
054D  0873  	MOVF convertTem_0002B_1_iTemp+D'1', W
054E  00F5  	MOVWF convertTem_0002B_1_iTemp2+D'1'
054F  01CC  	CLRF gbl_gbDS3231IsMinus
0550  1BF5  	BTFSC convertTem_0002B_1_iTemp2+D'1',7
0551  0ACC  	INCF gbl_gbDS3231IsMinus, F
0552  08CC  	MOVF gbl_gbDS3231IsMinus, F
0553  1903  	BTFSC STATUS,Z
0554  2D5A  	GOTO	label101
0555  09F4  	COMF convertTem_0002B_1_iTemp2, F
0556  09F5  	COMF convertTem_0002B_1_iTemp2+D'1', F
0557  0AF4  	INCF convertTem_0002B_1_iTemp2, F
0558  1903  	BTFSC STATUS,Z
0559  0AF5  	INCF convertTem_0002B_1_iTemp2+D'1', F
055A        label101
055A  3006  	MOVLW 0x06
055B  00FA  	MOVWF __mul_16s__0000F_arg_a
055C  01FB  	CLRF __mul_16s__0000F_arg_a+D'1'
055D  0874  	MOVF convertTem_0002B_1_iTemp2, W
055E  00FC  	MOVWF __mul_16s__0000F_arg_b
055F  0875  	MOVF convertTem_0002B_1_iTemp2+D'1', W
0560  00FD  	MOVWF __mul_16s__0000F_arg_b+D'1'
0561  2270  	CALL __mul_16s__0000F
0562  1683  	BSF STATUS, RP0
0563  0822  	MOVF CompTempVarRet389, W
0564  1283  	BCF STATUS, RP0
0565  00F6  	MOVWF convertTem_0002B_1_iValueC
0566  1683  	BSF STATUS, RP0
0567  0823  	MOVF CompTempVarRet389+D'1', W
0568  1283  	BCF STATUS, RP0
0569  00F9  	MOVWF CompTempVar627
056A  0874  	MOVF convertTem_0002B_1_iTemp2, W
056B  00F8  	MOVWF CompTempVar624
056C  0875  	MOVF convertTem_0002B_1_iTemp2+D'1', W
056D  00F7  	MOVWF convertTem_0002B_1_iValueC+D'1'
056E  0D75  	RLF convertTem_0002B_1_iTemp2+D'1', W
056F  0CF7  	RRF convertTem_0002B_1_iValueC+D'1', F
0570  0CF8  	RRF CompTempVar624, F
0571  0D75  	RLF convertTem_0002B_1_iTemp2+D'1', W
0572  0CF7  	RRF convertTem_0002B_1_iValueC+D'1', F
0573  0CF8  	RRF CompTempVar624, F
0574  0878  	MOVF CompTempVar624, W
0575  07F6  	ADDWF convertTem_0002B_1_iValueC, F
0576  0879  	MOVF CompTempVar627, W
0577  1803  	BTFSC STATUS,C
0578  0AF7  	INCF convertTem_0002B_1_iValueC+D'1', F
0579  07F7  	ADDWF convertTem_0002B_1_iValueC+D'1', F
057A  0876  	MOVF convertTem_0002B_1_iValueC, W
057B  00FA  	MOVWF intToBcd_00000_arg_iValue
057C  0877  	MOVF convertTem_0002B_1_iValueC+D'1', W
057D  00FB  	MOVWF intToBcd_00000_arg_iValue+D'1'
057E  219B  	CALL intToBcd_00000
057F  087C  	MOVF CompTempVarRet648, W
0580  00B3  	MOVWF gbl_giDS3231ValueBCD
0581  087D  	MOVF CompTempVarRet648+D'1', W
0582  00B4  	MOVWF gbl_giDS3231ValueBCD+D'1'
0583  0834  	MOVF gbl_giDS3231ValueBCD+D'1', W
0584  00CB  	MOVWF gbl_giDS3231ValueTruncCBCD
0585  034F  	DECF gbl_gcDisplayMode, W
0586  1D03  	BTFSS STATUS,Z
0587  0008  	RETURN
0588  3004  	MOVLW 0x04
0589  0772  	ADDWF convertTem_0002B_1_iTemp, W
058A  00FB  	MOVWF CompTempVar639
058B  0873  	MOVF convertTem_0002B_1_iTemp+D'1', W
058C  00FD  	MOVWF CompTempVar642
058D  1803  	BTFSC STATUS,C
058E  0AFD  	INCF CompTempVar642, F
058F  087D  	MOVF CompTempVar642, W
0590  00FA  	MOVWF CompTempVar636
0591  0D7D  	RLF CompTempVar642, W
0592  0CFA  	RRF CompTempVar636, F
0593  0CFB  	RRF CompTempVar639, F
0594  0D7D  	RLF CompTempVar642, W
0595  0CFA  	RRF CompTempVar636, F
0596  0CFB  	RRF CompTempVar639, F
0597  0D7D  	RLF CompTempVar642, W
0598  0CFA  	RRF CompTempVar636, F
0599  0CFB  	RRF CompTempVar639, F
059A  0872  	MOVF convertTem_0002B_1_iTemp, W
059B  07FB  	ADDWF CompTempVar639, F
059C  0873  	MOVF convertTem_0002B_1_iTemp+D'1', W
059D  00FC  	MOVWF CompTempVar640
059E  087A  	MOVF CompTempVar636, W
059F  1803  	BTFSC STATUS,C
05A0  0AFC  	INCF CompTempVar640, F
05A1  07FC  	ADDWF CompTempVar640, F
05A2  3040  	MOVLW 0x40
05A3  07FB  	ADDWF CompTempVar639, F
05A4  3001  	MOVLW 0x01
05A5  1803  	BTFSC STATUS,C
05A6  0AFC  	INCF CompTempVar640, F
05A7  07FC  	ADDWF CompTempVar640, F
05A8  087B  	MOVF CompTempVar639, W
05A9  00F4  	MOVWF convertTem_0002B_1_iTemp2
05AA  087C  	MOVF CompTempVar640, W
05AB  00F5  	MOVWF convertTem_0002B_1_iTemp2+D'1'
05AC  01CC  	CLRF gbl_gbDS3231IsMinus
05AD  1BF5  	BTFSC convertTem_0002B_1_iTemp2+D'1',7
05AE  0ACC  	INCF gbl_gbDS3231IsMinus, F
05AF  08CC  	MOVF gbl_gbDS3231IsMinus, F
05B0  1903  	BTFSC STATUS,Z
05B1  2DB7  	GOTO	label102
05B2  09F4  	COMF convertTem_0002B_1_iTemp2, F
05B3  09F5  	COMF convertTem_0002B_1_iTemp2+D'1', F
05B4  0AF4  	INCF convertTem_0002B_1_iTemp2, F
05B5  1903  	BTFSC STATUS,Z
05B6  0AF5  	INCF convertTem_0002B_1_iTemp2+D'1', F
05B7        label102
05B7  0874  	MOVF convertTem_0002B_1_iTemp2, W
05B8  00FA  	MOVWF intToBcd_00000_arg_iValue
05B9  0875  	MOVF convertTem_0002B_1_iTemp2+D'1', W
05BA  00FB  	MOVWF intToBcd_00000_arg_iValue+D'1'
05BB  219B  	CALL intToBcd_00000
05BC  087C  	MOVF CompTempVarRet648, W
05BD  00B3  	MOVWF gbl_giDS3231ValueBCD
05BE  087D  	MOVF CompTempVarRet648+D'1', W
05BF  00B4  	MOVWF gbl_giDS3231ValueBCD+D'1'
05C0  0008  	RETURN
05C1        ; } convertTemp function end

	ORG 0x000005C1
05C1        at24c32Wri_0002C
05C1        ; { at24c32WriteAll ; function begin
05C1  2126  	CALL i2c_START_00000
05C2  30AE  	MOVLW 0xAE
05C3  00F5  	MOVWF i2c_WRITE_00000_arg_i2c_data
05C4  20A5  	CALL i2c_WRITE_00000
05C5  01F5  	CLRF i2c_WRITE_00000_arg_i2c_data
05C6  20A5  	CALL i2c_WRITE_00000
05C7  01F5  	CLRF i2c_WRITE_00000_arg_i2c_data
05C8  20A5  	CALL i2c_WRITE_00000
05C9  3044  	MOVLW 0x44
05CA  00F5  	MOVWF i2c_WRITE_00000_arg_i2c_data
05CB  20A5  	CALL i2c_WRITE_00000
05CC  0853  	MOVF gbl_gBcdWhiteOnMinute, W
05CD  00F5  	MOVWF i2c_WRITE_00000_arg_i2c_data
05CE  20A5  	CALL i2c_WRITE_00000
05CF  0854  	MOVF gbl_gBcdWhiteOnHour, W
05D0  00F5  	MOVWF i2c_WRITE_00000_arg_i2c_data
05D1  20A5  	CALL i2c_WRITE_00000
05D2  0855  	MOVF gbl_gBcdWhiteOffMinute, W
05D3  00F5  	MOVWF i2c_WRITE_00000_arg_i2c_data
05D4  20A5  	CALL i2c_WRITE_00000
05D5  0856  	MOVF gbl_gBcdWhiteOffHour, W
05D6  00F5  	MOVWF i2c_WRITE_00000_arg_i2c_data
05D7  20A5  	CALL i2c_WRITE_00000
05D8  0857  	MOVF gbl_gBcdBlueOnMinute, W
05D9  00F5  	MOVWF i2c_WRITE_00000_arg_i2c_data
05DA  20A5  	CALL i2c_WRITE_00000
05DB  0858  	MOVF gbl_gBcdBlueOnHour, W
05DC  00F5  	MOVWF i2c_WRITE_00000_arg_i2c_data
05DD  20A5  	CALL i2c_WRITE_00000
05DE  0859  	MOVF gbl_gBcdBlueOffMinute, W
05DF  00F5  	MOVWF i2c_WRITE_00000_arg_i2c_data
05E0  20A5  	CALL i2c_WRITE_00000
05E1  085A  	MOVF gbl_gBcdBlueOffHour, W
05E2  00F5  	MOVWF i2c_WRITE_00000_arg_i2c_data
05E3  20A5  	CALL i2c_WRITE_00000
05E4  085F  	MOVF gbl_gBcdFanOnTemp, W
05E5  00F5  	MOVWF i2c_WRITE_00000_arg_i2c_data
05E6  20A5  	CALL i2c_WRITE_00000
05E7  0860  	MOVF gbl_gBcdFanOffTemp, W
05E8  00F5  	MOVWF i2c_WRITE_00000_arg_i2c_data
05E9  20A5  	CALL i2c_WRITE_00000
05EA  0861  	MOVF gbl_gBcdHeaterOnTemp, W
05EB  00F5  	MOVWF i2c_WRITE_00000_arg_i2c_data
05EC  20A5  	CALL i2c_WRITE_00000
05ED  0862  	MOVF gbl_gBcdHeaterOffTemp, W
05EE  00F5  	MOVWF i2c_WRITE_00000_arg_i2c_data
05EF  20A5  	CALL i2c_WRITE_00000
05F0  0851  	MOVF gbl_gcHourMode, W
05F1  00F5  	MOVWF i2c_WRITE_00000_arg_i2c_data
05F2  20A5  	CALL i2c_WRITE_00000
05F3  085B  	MOVF gbl_gBcdBlue2OnMinute, W
05F4  00F5  	MOVWF i2c_WRITE_00000_arg_i2c_data
05F5  20A5  	CALL i2c_WRITE_00000
05F6  085C  	MOVF gbl_gBcdBlue2OnHour, W
05F7  00F5  	MOVWF i2c_WRITE_00000_arg_i2c_data
05F8  20A5  	CALL i2c_WRITE_00000
05F9  085D  	MOVF gbl_gBcdBlue2OffMinute, W
05FA  00F5  	MOVWF i2c_WRITE_00000_arg_i2c_data
05FB  20A5  	CALL i2c_WRITE_00000
05FC  085E  	MOVF gbl_gBcdBlue2OffHour, W
05FD  00F5  	MOVWF i2c_WRITE_00000_arg_i2c_data
05FE  20A5  	CALL i2c_WRITE_00000
05FF  20F6  	CALL i2c_STOP_00000
0600  300A  	MOVLW 0x0A
0601  00F2  	MOVWF delay_ms_00000_arg_del
0602  2081  	CALL delay_ms_00000
0603  0008  	RETURN
0604        ; } at24c32WriteAll function end

	ORG 0x00000604
0604        at24c32Rea_0002D
0604        ; { at24c32ReadAll ; function begin
0604  2126  	CALL i2c_START_00000
0605  30AE  	MOVLW 0xAE
0606  00F5  	MOVWF i2c_WRITE_00000_arg_i2c_data
0607  20A5  	CALL i2c_WRITE_00000
0608  01F5  	CLRF i2c_WRITE_00000_arg_i2c_data
0609  20A5  	CALL i2c_WRITE_00000
060A  01F5  	CLRF i2c_WRITE_00000_arg_i2c_data
060B  20A5  	CALL i2c_WRITE_00000
060C  20F6  	CALL i2c_STOP_00000
060D  2126  	CALL i2c_START_00000
060E  30AF  	MOVLW 0xAF
060F  00F5  	MOVWF i2c_WRITE_00000_arg_i2c_data
0610  20A5  	CALL i2c_WRITE_00000
0611  01F5  	CLRF i2c_READ_00000_arg_ack_status
0612  21DE  	CALL i2c_READ_00000
0613  0878  	MOVF CompTempVarRet553, W
0614  00F3  	MOVWF at24c32Rea_0002D_1_hasWritten
0615  0873  	MOVF at24c32Rea_0002D_1_hasWritten, W
0616  3A44  	XORLW 0x44
0617  1903  	BTFSC STATUS,Z
0618  2E1D  	GOTO	label103
0619  3001  	MOVLW 0x01
061A  00F5  	MOVWF i2c_READ_00000_arg_ack_status
061B  21DE  	CALL i2c_READ_00000
061C  2E62  	GOTO	label104
061D        label103
061D  01F5  	CLRF i2c_READ_00000_arg_ack_status
061E  21DE  	CALL i2c_READ_00000
061F  0878  	MOVF CompTempVarRet553, W
0620  00D3  	MOVWF gbl_gBcdWhiteOnMinute
0621  01F5  	CLRF i2c_READ_00000_arg_ack_status
0622  21DE  	CALL i2c_READ_00000
0623  0878  	MOVF CompTempVarRet553, W
0624  00D4  	MOVWF gbl_gBcdWhiteOnHour
0625  01F5  	CLRF i2c_READ_00000_arg_ack_status
0626  21DE  	CALL i2c_READ_00000
0627  0878  	MOVF CompTempVarRet553, W
0628  00D5  	MOVWF gbl_gBcdWhiteOffMinute
0629  01F5  	CLRF i2c_READ_00000_arg_ack_status
062A  21DE  	CALL i2c_READ_00000
062B  0878  	MOVF CompTempVarRet553, W
062C  00D6  	MOVWF gbl_gBcdWhiteOffHour
062D  01F5  	CLRF i2c_READ_00000_arg_ack_status
062E  21DE  	CALL i2c_READ_00000
062F  0878  	MOVF CompTempVarRet553, W
0630  00D7  	MOVWF gbl_gBcdBlueOnMinute
0631  01F5  	CLRF i2c_READ_00000_arg_ack_status
0632  21DE  	CALL i2c_READ_00000
0633  0878  	MOVF CompTempVarRet553, W
0634  00D8  	MOVWF gbl_gBcdBlueOnHour
0635  01F5  	CLRF i2c_READ_00000_arg_ack_status
0636  21DE  	CALL i2c_READ_00000
0637  0878  	MOVF CompTempVarRet553, W
0638  00D9  	MOVWF gbl_gBcdBlueOffMinute
0639  01F5  	CLRF i2c_READ_00000_arg_ack_status
063A  21DE  	CALL i2c_READ_00000
063B  0878  	MOVF CompTempVarRet553, W
063C  00DA  	MOVWF gbl_gBcdBlueOffHour
063D  01F5  	CLRF i2c_READ_00000_arg_ack_status
063E  21DE  	CALL i2c_READ_00000
063F  0878  	MOVF CompTempVarRet553, W
0640  00DF  	MOVWF gbl_gBcdFanOnTemp
0641  01F5  	CLRF i2c_READ_00000_arg_ack_status
0642  21DE  	CALL i2c_READ_00000
0643  0878  	MOVF CompTempVarRet553, W
0644  00E0  	MOVWF gbl_gBcdFanOffTemp
0645  01F5  	CLRF i2c_READ_00000_arg_ack_status
0646  21DE  	CALL i2c_READ_00000
0647  0878  	MOVF CompTempVarRet553, W
0648  00E1  	MOVWF gbl_gBcdHeaterOnTemp
0649  01F5  	CLRF i2c_READ_00000_arg_ack_status
064A  21DE  	CALL i2c_READ_00000
064B  0878  	MOVF CompTempVarRet553, W
064C  00E2  	MOVWF gbl_gBcdHeaterOffTemp
064D  01F5  	CLRF i2c_READ_00000_arg_ack_status
064E  21DE  	CALL i2c_READ_00000
064F  0878  	MOVF CompTempVarRet553, W
0650  00D1  	MOVWF gbl_gcHourMode
0651  01F5  	CLRF i2c_READ_00000_arg_ack_status
0652  21DE  	CALL i2c_READ_00000
0653  0878  	MOVF CompTempVarRet553, W
0654  00DB  	MOVWF gbl_gBcdBlue2OnMinute
0655  01F5  	CLRF i2c_READ_00000_arg_ack_status
0656  21DE  	CALL i2c_READ_00000
0657  0878  	MOVF CompTempVarRet553, W
0658  00DC  	MOVWF gbl_gBcdBlue2OnHour
0659  01F5  	CLRF i2c_READ_00000_arg_ack_status
065A  21DE  	CALL i2c_READ_00000
065B  0878  	MOVF CompTempVarRet553, W
065C  00DD  	MOVWF gbl_gBcdBlue2OffMinute
065D  3001  	MOVLW 0x01
065E  00F5  	MOVWF i2c_READ_00000_arg_ack_status
065F  21DE  	CALL i2c_READ_00000
0660  0878  	MOVF CompTempVarRet553, W
0661  00DE  	MOVWF gbl_gBcdBlue2OffHour
0662        label104
0662  20F6  	CALL i2c_STOP_00000
0663  0008  	RETURN
0664        ; } at24c32ReadAll function end

	ORG 0x00000664
0664        adjustTrig_00029
0664        ; { adjustTrigger ; function begin
0664  1283  	BCF STATUS, RP0
0665  1303  	BCF STATUS, RP1
0666  0852  	MOVF gbl_gcTriggerMode, W
0667  3A01  	XORLW 0x01
0668  1903  	BTFSC STATUS,Z
0669  2E98  	GOTO	label105
066A  3A03  	XORLW 0x03
066B  1903  	BTFSC STATUS,Z
066C  2EA1  	GOTO	label106
066D  3A01  	XORLW 0x01
066E  1903  	BTFSC STATUS,Z
066F  2EAA  	GOTO	label107
0670  3A07  	XORLW 0x07
0671  1903  	BTFSC STATUS,Z
0672  2EB3  	GOTO	label108
0673  3A01  	XORLW 0x01
0674  1903  	BTFSC STATUS,Z
0675  2EBC  	GOTO	label109
0676  3A03  	XORLW 0x03
0677  1903  	BTFSC STATUS,Z
0678  2EC5  	GOTO	label110
0679  3A01  	XORLW 0x01
067A  1903  	BTFSC STATUS,Z
067B  2ECE  	GOTO	label111
067C  3A0F  	XORLW 0x0F
067D  1903  	BTFSC STATUS,Z
067E  2ED7  	GOTO	label112
067F  3A01  	XORLW 0x01
0680  1903  	BTFSC STATUS,Z
0681  2EE0  	GOTO	label113
0682  3A03  	XORLW 0x03
0683  1903  	BTFSC STATUS,Z
0684  2EE9  	GOTO	label114
0685  3A01  	XORLW 0x01
0686  1903  	BTFSC STATUS,Z
0687  2EF2  	GOTO	label115
0688  3A07  	XORLW 0x07
0689  1903  	BTFSC STATUS,Z
068A  2EFB  	GOTO	label116
068B  3A01  	XORLW 0x01
068C  1903  	BTFSC STATUS,Z
068D  2F04  	GOTO	label117
068E  3A03  	XORLW 0x03
068F  1903  	BTFSC STATUS,Z
0690  2F0E  	GOTO	label118
0691  3A01  	XORLW 0x01
0692  1903  	BTFSC STATUS,Z
0693  2F1E  	GOTO	label120
0694  3A1F  	XORLW 0x1F
0695  1903  	BTFSC STATUS,Z
0696  2F27  	GOTO	label121
0697  0008  	RETURN
0698        label105
0698  0854  	MOVF gbl_gBcdWhiteOnHour, W
0699  00F4  	MOVWF bcdAdjust_00000_arg_bcd
069A  3023  	MOVLW 0x23
069B  00F5  	MOVWF bcdAdjust_00000_arg_bcdMax
069C  01F6  	CLRF bcdAdjust_00000_arg_bcdMin
069D  2246  	CALL bcdAdjust_00000
069E  0877  	MOVF CompTempVarRet612, W
069F  00D4  	MOVWF gbl_gBcdWhiteOnHour
06A0  0008  	RETURN
06A1        label106
06A1  0853  	MOVF gbl_gBcdWhiteOnMinute, W
06A2  00F4  	MOVWF bcdAdjust_00000_arg_bcd
06A3  3059  	MOVLW 0x59
06A4  00F5  	MOVWF bcdAdjust_00000_arg_bcdMax
06A5  01F6  	CLRF bcdAdjust_00000_arg_bcdMin
06A6  2246  	CALL bcdAdjust_00000
06A7  0877  	MOVF CompTempVarRet612, W
06A8  00D3  	MOVWF gbl_gBcdWhiteOnMinute
06A9  0008  	RETURN
06AA        label107
06AA  0856  	MOVF gbl_gBcdWhiteOffHour, W
06AB  00F4  	MOVWF bcdAdjust_00000_arg_bcd
06AC  3023  	MOVLW 0x23
06AD  00F5  	MOVWF bcdAdjust_00000_arg_bcdMax
06AE  01F6  	CLRF bcdAdjust_00000_arg_bcdMin
06AF  2246  	CALL bcdAdjust_00000
06B0  0877  	MOVF CompTempVarRet612, W
06B1  00D6  	MOVWF gbl_gBcdWhiteOffHour
06B2  0008  	RETURN
06B3        label108
06B3  0855  	MOVF gbl_gBcdWhiteOffMinute, W
06B4  00F4  	MOVWF bcdAdjust_00000_arg_bcd
06B5  3059  	MOVLW 0x59
06B6  00F5  	MOVWF bcdAdjust_00000_arg_bcdMax
06B7  01F6  	CLRF bcdAdjust_00000_arg_bcdMin
06B8  2246  	CALL bcdAdjust_00000
06B9  0877  	MOVF CompTempVarRet612, W
06BA  00D5  	MOVWF gbl_gBcdWhiteOffMinute
06BB  0008  	RETURN
06BC        label109
06BC  0858  	MOVF gbl_gBcdBlueOnHour, W
06BD  00F4  	MOVWF bcdAdjust_00000_arg_bcd
06BE  3023  	MOVLW 0x23
06BF  00F5  	MOVWF bcdAdjust_00000_arg_bcdMax
06C0  01F6  	CLRF bcdAdjust_00000_arg_bcdMin
06C1  2246  	CALL bcdAdjust_00000
06C2  0877  	MOVF CompTempVarRet612, W
06C3  00D8  	MOVWF gbl_gBcdBlueOnHour
06C4  0008  	RETURN
06C5        label110
06C5  0857  	MOVF gbl_gBcdBlueOnMinute, W
06C6  00F4  	MOVWF bcdAdjust_00000_arg_bcd
06C7  3059  	MOVLW 0x59
06C8  00F5  	MOVWF bcdAdjust_00000_arg_bcdMax
06C9  01F6  	CLRF bcdAdjust_00000_arg_bcdMin
06CA  2246  	CALL bcdAdjust_00000
06CB  0877  	MOVF CompTempVarRet612, W
06CC  00D7  	MOVWF gbl_gBcdBlueOnMinute
06CD  0008  	RETURN
06CE        label111
06CE  085A  	MOVF gbl_gBcdBlueOffHour, W
06CF  00F4  	MOVWF bcdAdjust_00000_arg_bcd
06D0  3023  	MOVLW 0x23
06D1  00F5  	MOVWF bcdAdjust_00000_arg_bcdMax
06D2  01F6  	CLRF bcdAdjust_00000_arg_bcdMin
06D3  2246  	CALL bcdAdjust_00000
06D4  0877  	MOVF CompTempVarRet612, W
06D5  00DA  	MOVWF gbl_gBcdBlueOffHour
06D6  0008  	RETURN
06D7        label112
06D7  0859  	MOVF gbl_gBcdBlueOffMinute, W
06D8  00F4  	MOVWF bcdAdjust_00000_arg_bcd
06D9  3059  	MOVLW 0x59
06DA  00F5  	MOVWF bcdAdjust_00000_arg_bcdMax
06DB  01F6  	CLRF bcdAdjust_00000_arg_bcdMin
06DC  2246  	CALL bcdAdjust_00000
06DD  0877  	MOVF CompTempVarRet612, W
06DE  00D9  	MOVWF gbl_gBcdBlueOffMinute
06DF  0008  	RETURN
06E0        label113
06E0  085C  	MOVF gbl_gBcdBlue2OnHour, W
06E1  00F4  	MOVWF bcdAdjust_00000_arg_bcd
06E2  3023  	MOVLW 0x23
06E3  00F5  	MOVWF bcdAdjust_00000_arg_bcdMax
06E4  01F6  	CLRF bcdAdjust_00000_arg_bcdMin
06E5  2246  	CALL bcdAdjust_00000
06E6  0877  	MOVF CompTempVarRet612, W
06E7  00DC  	MOVWF gbl_gBcdBlue2OnHour
06E8  0008  	RETURN
06E9        label114
06E9  085B  	MOVF gbl_gBcdBlue2OnMinute, W
06EA  00F4  	MOVWF bcdAdjust_00000_arg_bcd
06EB  3059  	MOVLW 0x59
06EC  00F5  	MOVWF bcdAdjust_00000_arg_bcdMax
06ED  01F6  	CLRF bcdAdjust_00000_arg_bcdMin
06EE  2246  	CALL bcdAdjust_00000
06EF  0877  	MOVF CompTempVarRet612, W
06F0  00DB  	MOVWF gbl_gBcdBlue2OnMinute
06F1  0008  	RETURN
06F2        label115
06F2  085E  	MOVF gbl_gBcdBlue2OffHour, W
06F3  00F4  	MOVWF bcdAdjust_00000_arg_bcd
06F4  3023  	MOVLW 0x23
06F5  00F5  	MOVWF bcdAdjust_00000_arg_bcdMax
06F6  01F6  	CLRF bcdAdjust_00000_arg_bcdMin
06F7  2246  	CALL bcdAdjust_00000
06F8  0877  	MOVF CompTempVarRet612, W
06F9  00DE  	MOVWF gbl_gBcdBlue2OffHour
06FA  0008  	RETURN
06FB        label116
06FB  085D  	MOVF gbl_gBcdBlue2OffMinute, W
06FC  00F4  	MOVWF bcdAdjust_00000_arg_bcd
06FD  3059  	MOVLW 0x59
06FE  00F5  	MOVWF bcdAdjust_00000_arg_bcdMax
06FF  01F6  	CLRF bcdAdjust_00000_arg_bcdMin
0700  2246  	CALL bcdAdjust_00000
0701  0877  	MOVF CompTempVarRet612, W
0702  00DD  	MOVWF gbl_gBcdBlue2OffMinute
0703  0008  	RETURN
0704        label117
0704  085F  	MOVF gbl_gBcdFanOnTemp, W
0705  00F4  	MOVWF bcdAdjust_00000_arg_bcd
0706  3040  	MOVLW 0x40
0707  00F5  	MOVWF bcdAdjust_00000_arg_bcdMax
0708  3020  	MOVLW 0x20
0709  00F6  	MOVWF bcdAdjust_00000_arg_bcdMin
070A  2246  	CALL bcdAdjust_00000
070B  0877  	MOVF CompTempVarRet612, W
070C  00DF  	MOVWF gbl_gBcdFanOnTemp
070D  0008  	RETURN
070E        label118
070E  0860  	MOVF gbl_gBcdFanOffTemp, W
070F  025F  	SUBWF gbl_gBcdFanOnTemp, W
0710  1803  	BTFSC STATUS,C
0711  2F14  	GOTO	label119
0712  085F  	MOVF gbl_gBcdFanOnTemp, W
0713  00E0  	MOVWF gbl_gBcdFanOffTemp
0714        label119
0714  0860  	MOVF gbl_gBcdFanOffTemp, W
0715  00F4  	MOVWF bcdAdjust_00000_arg_bcd
0716  085F  	MOVF gbl_gBcdFanOnTemp, W
0717  00F5  	MOVWF bcdAdjust_00000_arg_bcdMax
0718  3020  	MOVLW 0x20
0719  00F6  	MOVWF bcdAdjust_00000_arg_bcdMin
071A  2246  	CALL bcdAdjust_00000
071B  0877  	MOVF CompTempVarRet612, W
071C  00E0  	MOVWF gbl_gBcdFanOffTemp
071D  0008  	RETURN
071E        label120
071E  0861  	MOVF gbl_gBcdHeaterOnTemp, W
071F  00F4  	MOVWF bcdAdjust_00000_arg_bcd
0720  3040  	MOVLW 0x40
0721  00F5  	MOVWF bcdAdjust_00000_arg_bcdMax
0722  01F6  	CLRF bcdAdjust_00000_arg_bcdMin
0723  2246  	CALL bcdAdjust_00000
0724  0877  	MOVF CompTempVarRet612, W
0725  00E1  	MOVWF gbl_gBcdHeaterOnTemp
0726  0008  	RETURN
0727        label121
0727  0861  	MOVF gbl_gBcdHeaterOnTemp, W
0728  0262  	SUBWF gbl_gBcdHeaterOffTemp, W
0729  1803  	BTFSC STATUS,C
072A  2F2D  	GOTO	label122
072B  0861  	MOVF gbl_gBcdHeaterOnTemp, W
072C  00E2  	MOVWF gbl_gBcdHeaterOffTemp
072D        label122
072D  0862  	MOVF gbl_gBcdHeaterOffTemp, W
072E  00F4  	MOVWF bcdAdjust_00000_arg_bcd
072F  3040  	MOVLW 0x40
0730  00F5  	MOVWF bcdAdjust_00000_arg_bcdMax
0731  0861  	MOVF gbl_gBcdHeaterOnTemp, W
0732  00F6  	MOVWF bcdAdjust_00000_arg_bcdMin
0733  2246  	CALL bcdAdjust_00000
0734  0877  	MOVF CompTempVarRet612, W
0735  00E2  	MOVWF gbl_gBcdHeaterOffTemp
0736  0008  	RETURN
0737        ; } adjustTrigger function end

	ORG 0x00000737
0737        adjustDate_00028
0737        ; { adjustDateTime ; function begin
0737  1283  	BCF STATUS, RP0
0738  1303  	BCF STATUS, RP1
0739  0850  	MOVF gbl_gcSetMode, W
073A  3A01  	XORLW 0x01
073B  1903  	BTFSC STATUS,Z
073C  2F50  	GOTO	label123
073D  3A03  	XORLW 0x03
073E  1903  	BTFSC STATUS,Z
073F  2F59  	GOTO	label124
0740  3A01  	XORLW 0x01
0741  1903  	BTFSC STATUS,Z
0742  2F63  	GOTO	label125
0743  3A07  	XORLW 0x07
0744  1903  	BTFSC STATUS,Z
0745  2F9A  	GOTO	label130
0746  3A01  	XORLW 0x01
0747  1903  	BTFSC STATUS,Z
0748  2FA4  	GOTO	label131
0749  3A03  	XORLW 0x03
074A  1903  	BTFSC STATUS,Z
074B  2FAA  	GOTO	label132
074C  3A01  	XORLW 0x01
074D  1903  	BTFSC STATUS,Z
074E  2FB3  	GOTO	label133
074F  0008  	RETURN
0750        label123
0750  083B  	MOVF gbl_gBcdYear, W
0751  00F4  	MOVWF bcdAdjust_00000_arg_bcd
0752  3099  	MOVLW 0x99
0753  00F5  	MOVWF bcdAdjust_00000_arg_bcdMax
0754  01F6  	CLRF bcdAdjust_00000_arg_bcdMin
0755  2246  	CALL bcdAdjust_00000
0756  0877  	MOVF CompTempVarRet612, W
0757  00BB  	MOVWF gbl_gBcdYear
0758  0008  	RETURN
0759        label124
0759  083A  	MOVF gbl_gBcdMonth, W
075A  00F4  	MOVWF bcdAdjust_00000_arg_bcd
075B  3012  	MOVLW 0x12
075C  00F5  	MOVWF bcdAdjust_00000_arg_bcdMax
075D  3001  	MOVLW 0x01
075E  00F6  	MOVWF bcdAdjust_00000_arg_bcdMin
075F  2246  	CALL bcdAdjust_00000
0760  0877  	MOVF CompTempVarRet612, W
0761  00BA  	MOVWF gbl_gBcdMonth
0762  0008  	RETURN
0763        label125
0763  083A  	MOVF gbl_gBcdMonth, W
0764  00F2  	MOVWF adjustDate_00028_1_iMonth
0765  30F0  	MOVLW 0xF0
0766  0572  	ANDWF adjustDate_00028_1_iMonth, W
0767  1903  	BTFSC STATUS,Z
0768  2F6E  	GOTO	label126
0769  0E3A  	SWAPF gbl_gBcdMonth, W
076A  390F  	ANDLW 0x0F
076B  00F4  	MOVWF CompTempVar615
076C  0874  	MOVF CompTempVar615, W
076D  07F2  	ADDWF adjustDate_00028_1_iMonth, F
076E        label126
076E  03F2  	DECF adjustDate_00028_1_iMonth, F
076F  083C  	MOVF gbl_gDaysInMonth, W
0770  00FB  	MOVWF __rom_get_00000_arg_objNumb
0771  0872  	MOVF adjustDate_00028_1_iMonth, W
0772  00FC  	MOVWF __rom_get_00000_arg_idx
0773  201A  	CALL __rom_get_00000
0774  00F3  	MOVWF adjustDate_00028_1_bcdMaxDay
0775  0372  	DECF adjustDate_00028_1_iMonth, W
0776  118A  	BCF PCLATH,3
0777  120A  	BCF PCLATH,4
0778  1D03  	BTFSS STATUS,Z
0779  2F90  	GOTO	label129
077A  01F4  	CLRF adjustDate_00028_16_i
077B        label127
077B  3018  	MOVLW 0x18
077C  0274  	SUBWF adjustDate_00028_16_i, W
077D  1803  	BTFSC STATUS,C
077E  2F90  	GOTO	label129
077F  083D  	MOVF gbl_gLeapYears, W
0780  00FB  	MOVWF __rom_get_00000_arg_objNumb
0781  0874  	MOVF adjustDate_00028_16_i, W
0782  00FC  	MOVWF __rom_get_00000_arg_idx
0783  201A  	CALL __rom_get_00000
0784  00F5  	MOVWF CompTempVar616
0785  083B  	MOVF gbl_gBcdYear, W
0786  0675  	XORWF CompTempVar616, W
0787  118A  	BCF PCLATH,3
0788  120A  	BCF PCLATH,4
0789  1D03  	BTFSS STATUS,Z
078A  2F8E  	GOTO	label128
078B  3029  	MOVLW 0x29
078C  00F3  	MOVWF adjustDate_00028_1_bcdMaxDay
078D  2F90  	GOTO	label129
078E        label128
078E  0AF4  	INCF adjustDate_00028_16_i, F
078F  2F7B  	GOTO	label127
0790        label129
0790  0839  	MOVF gbl_gBcdDayOfMonth, W
0791  00F4  	MOVWF bcdAdjust_00000_arg_bcd
0792  0873  	MOVF adjustDate_00028_1_bcdMaxDay, W
0793  00F5  	MOVWF bcdAdjust_00000_arg_bcdMax
0794  3001  	MOVLW 0x01
0795  00F6  	MOVWF bcdAdjust_00000_arg_bcdMin
0796  2246  	CALL bcdAdjust_00000
0797  0877  	MOVF CompTempVarRet612, W
0798  00B9  	MOVWF gbl_gBcdDayOfMonth
0799  0008  	RETURN
079A        label130
079A  0838  	MOVF gbl_gDayOfWeek, W
079B  00F4  	MOVWF bcdAdjust_00000_arg_bcd
079C  3007  	MOVLW 0x07
079D  00F5  	MOVWF bcdAdjust_00000_arg_bcdMax
079E  3001  	MOVLW 0x01
079F  00F6  	MOVWF bcdAdjust_00000_arg_bcdMin
07A0  2246  	CALL bcdAdjust_00000
07A1  0877  	MOVF CompTempVarRet612, W
07A2  00B8  	MOVWF gbl_gDayOfWeek
07A3  0008  	RETURN
07A4        label131
07A4  0AD1  	INCF gbl_gcHourMode, F
07A5  0851  	MOVF gbl_gcHourMode, W
07A6  3C02  	SUBLW 0x02
07A7  1C03  	BTFSS STATUS,C
07A8  01D1  	CLRF gbl_gcHourMode
07A9  0008  	RETURN
07AA        label132
07AA  0837  	MOVF gbl_gBcdHour, W
07AB  00F4  	MOVWF bcdAdjust_00000_arg_bcd
07AC  3023  	MOVLW 0x23
07AD  00F5  	MOVWF bcdAdjust_00000_arg_bcdMax
07AE  01F6  	CLRF bcdAdjust_00000_arg_bcdMin
07AF  2246  	CALL bcdAdjust_00000
07B0  0877  	MOVF CompTempVarRet612, W
07B1  00B7  	MOVWF gbl_gBcdHour
07B2  0008  	RETURN
07B3        label133
07B3  0836  	MOVF gbl_gBcdMinute, W
07B4  00F4  	MOVWF bcdAdjust_00000_arg_bcd
07B5  3059  	MOVLW 0x59
07B6  00F5  	MOVWF bcdAdjust_00000_arg_bcdMax
07B7  01F6  	CLRF bcdAdjust_00000_arg_bcdMin
07B8  2246  	CALL bcdAdjust_00000
07B9  0877  	MOVF CompTempVarRet612, W
07BA  00B6  	MOVWF gbl_gBcdMinute
07BB  0008  	RETURN
07BC        ; } adjustDateTime function end

	ORG 0x000007BC
07BC        tm1638Read_00026
07BC        ; { tm1638ReadKeys ; function begin
07BC  1283  	BCF STATUS, RP0
07BD  1303  	BCF STATUS, RP1
07BE  1186  	BCF gbl_portb,3
07BF  0868  	MOVF gbl_tm1638ByteReadData, W
07C0  00F6  	MOVWF tm1638Byte_0001F_arg_bWrite
07C1  216C  	CALL tm1638Byte_0001F
07C2  1683  	BSF STATUS, RP0
07C3  1486  	BSF gbl_trisb,1
07C4  3020  	MOVLW 0x20
07C5  1283  	BCF STATUS, RP0
07C6  00F2  	MOVWF tm1638Read_00026_1_tm1638K_00027
07C7  01F3  	CLRF tm1638Read_00026_2_i
07C8        label134
07C8  3020  	MOVLW 0x20
07C9  0273  	SUBWF tm1638Read_00026_2_i, W
07CA  1803  	BTFSC STATUS,C
07CB  2FD8  	GOTO	label136
07CC  03F2  	DECF tm1638Read_00026_1_tm1638K_00027, F
07CD  1106  	BCF gbl_portb,2
07CE  3001  	MOVLW 0x01
07CF  00F8  	MOVWF delay_us_00000_arg_del
07D0  2010  	CALL delay_us_00000
07D1  1C86  	BTFSS gbl_portb,1
07D2  2FD5  	GOTO	label135
07D3  1003  	BCF STATUS,C
07D4  0DF2  	RLF tm1638Read_00026_1_tm1638K_00027, F
07D5        label135
07D5  1506  	BSF gbl_portb,2
07D6  0AF3  	INCF tm1638Read_00026_2_i, F
07D7  2FC8  	GOTO	label134
07D8        label136
07D8  1683  	BSF STATUS, RP0
07D9  1086  	BCF gbl_trisb,1
07DA  1283  	BCF STATUS, RP0
07DB  1586  	BSF gbl_portb,3
07DC  0872  	MOVF tm1638Read_00026_1_tm1638K_00027, W
07DD  00EB  	MOVWF gbl_tm1638Keys
07DE  0008  	RETURN
07DF        ; } tm1638ReadKeys function end

	ORG 0x000007DF
07DF        startTemp_00000
07DF        ; { startTemp ; function begin
07DF  30CC  	MOVLW 0xCC
07E0  1283  	BCF STATUS, RP0
07E1  1303  	BCF STATUS, RP1
07E2  00F2  	MOVWF oneWireTxB_00019_arg_cData
07E3  3044  	MOVLW 0x44
07E4  00F3  	MOVWF oneWireTxB_00019_arg_cData2
07E5  24D0  	CALL oneWireTxB_00019
07E6  0008  	RETURN
07E7        ; } startTemp function end

	ORG 0x000007E7
07E7        readTemp_00000
07E7        ; { readTemp ; function begin
07E7  30CC  	MOVLW 0xCC
07E8  1283  	BCF STATUS, RP0
07E9  1303  	BCF STATUS, RP1
07EA  00F2  	MOVWF oneWireTxB_00019_arg_cData
07EB  30BE  	MOVLW 0xBE
07EC  00F3  	MOVWF oneWireTxB_00019_arg_cData2
07ED  24D0  	CALL oneWireTxB_00019
07EE  24D7  	CALL oneWireRxB_0001A
07EF  0873  	MOVF CompTempVarRet551, W
07F0  00CA  	MOVWF gbl_cTempL
07F1  24D7  	CALL oneWireRxB_0001A
07F2  0873  	MOVF CompTempVarRet551, W
07F3  00C9  	MOVWF gbl_cTempH
07F4  0008  	RETURN
07F5        ; } readTemp function end

	ORG 0x000007F5
07F5        processKey_0002A
07F5        ; { processKeys ; function begin
07F5  1283  	BCF STATUS, RP0
07F6  1303  	BCF STATUS, RP1
07F7  086B  	MOVF gbl_tm1638Keys, W
07F8  3A1F  	XORLW 0x1F
07F9  158A  	BSF PCLATH,3
07FA  1903  	BTFSC STATUS,Z
07FB  2812  	GOTO	label137
07FC  3A08  	XORLW 0x08
07FD  1903  	BTFSC STATUS,Z
07FE  281A  	GOTO	label138
07FF  3A18  	XORLW 0x18
0800  1903  	BTFSC STATUS,Z
0801  2822  	GOTO	label139
0802  3A08  	XORLW 0x08
0803  1903  	BTFSC STATUS,Z
0804  282A  	GOTO	label140
0805  3A1C  	XORLW 0x1C
0806  1903  	BTFSC STATUS,Z
0807  2834  	GOTO	label141
0808  3A08  	XORLW 0x08
0809  1903  	BTFSC STATUS,Z
080A  283E  	GOTO	label142
080B  3A18  	XORLW 0x18
080C  1903  	BTFSC STATUS,Z
080D  284A  	GOTO	label144
080E  3A08  	XORLW 0x08
080F  1903  	BTFSC STATUS,Z
0810  2857  	GOTO	label146
0811  0008  	RETURN
0812        label137
0812  01F2  	CLRF CompTempVar617
0813  1C87  	BTFSS gbl_portc,1
0814  0AF2  	INCF CompTempVar617, F
0815  1872  	BTFSC CompTempVar617,0
0816  1487  	BSF gbl_portc,1
0817  1C72  	BTFSS CompTempVar617,0
0818  1087  	BCF gbl_portc,1
0819  0008  	RETURN
081A        label138
081A  01F2  	CLRF CompTempVar618
081B  1D07  	BTFSS gbl_portc,2
081C  0AF2  	INCF CompTempVar618, F
081D  1872  	BTFSC CompTempVar618,0
081E  1507  	BSF gbl_portc,2
081F  1C72  	BTFSS CompTempVar618,0
0820  1107  	BCF gbl_portc,2
0821  0008  	RETURN
0822        label139
0822  01F2  	CLRF CompTempVar619
0823  1D4E  	BTFSS gbl_gbFanOn,2
0824  0AF2  	INCF CompTempVar619, F
0825  114E  	BCF gbl_gbFanOn,2
0826  0872  	MOVF CompTempVar619, W
0827  1D03  	BTFSS STATUS,Z
0828  154E  	BSF gbl_gbFanOn,2
0829  0008  	RETURN
082A        label140
082A  01D0  	CLRF gbl_gcSetMode
082B  01D2  	CLRF gbl_gcTriggerMode
082C  0ACF  	INCF gbl_gcDisplayMode, F
082D  084F  	MOVF gbl_gcDisplayMode, W
082E  3C03  	SUBLW 0x03
082F  1C03  	BTFSS STATUS,C
0830  01CF  	CLRF gbl_gcDisplayMode
0831  118A  	BCF PCLATH,3
0832  2544  	CALL convertTem_0002B
0833  0008  	RETURN
0834        label141
0834  01D2  	CLRF gbl_gcTriggerMode
0835  0AD0  	INCF gbl_gcSetMode, F
0836  0850  	MOVF gbl_gcSetMode, W
0837  3C07  	SUBLW 0x07
0838  1803  	BTFSC STATUS,C
0839  0008  	RETURN
083A  118A  	BCF PCLATH,3
083B  2508  	CALL ds3231Writ_0001C
083C  01D0  	CLRF gbl_gcSetMode
083D  0008  	RETURN
083E        label142
083E  01EF  	CLRF gbl_iBcdAdjustment
083F  08D0  	MOVF gbl_gcSetMode, F
0840  1903  	BTFSC STATUS,Z
0841  2845  	GOTO	label143
0842  118A  	BCF PCLATH,3
0843  2737  	CALL adjustDate_00028
0844  0008  	RETURN
0845        label143
0845  08D2  	MOVF gbl_gcTriggerMode, F
0846  118A  	BCF PCLATH,3
0847  1D03  	BTFSS STATUS,Z
0848  2664  	CALL adjustTrig_00029
0849  0008  	RETURN
084A        label144
084A  3001  	MOVLW 0x01
084B  00EF  	MOVWF gbl_iBcdAdjustment
084C  08D0  	MOVF gbl_gcSetMode, F
084D  1903  	BTFSC STATUS,Z
084E  2852  	GOTO	label145
084F  118A  	BCF PCLATH,3
0850  2737  	CALL adjustDate_00028
0851  0008  	RETURN
0852        label145
0852  08D2  	MOVF gbl_gcTriggerMode, F
0853  118A  	BCF PCLATH,3
0854  1D03  	BTFSS STATUS,Z
0855  2664  	CALL adjustTrig_00029
0856  0008  	RETURN
0857        label146
0857  01D0  	CLRF gbl_gcSetMode
0858  0AD2  	INCF gbl_gcTriggerMode, F
0859  0852  	MOVF gbl_gcTriggerMode, W
085A  3C10  	SUBLW 0x10
085B  1803  	BTFSC STATUS,C
085C  0008  	RETURN
085D  01D2  	CLRF gbl_gcTriggerMode
085E  118A  	BCF PCLATH,3
085F  25C1  	CALL at24c32Wri_0002C
0860  0008  	RETURN
0861        ; } processKeys function end

	ORG 0x00000861
0861        oneWireBus_00017
0861        ; { oneWireBusReset ; function begin
0861  1683  	BSF STATUS, RP0
0862  1303  	BCF STATUS, RP1
0863  1687  	BSF gbl_trisc,5
0864  1283  	BCF STATUS, RP0
0865  01F2  	CLRF oneWireBus_00017_1_isPresent
0866  1287  	BCF gbl_portc,5
0867  1683  	BSF STATUS, RP0
0868  1287  	BCF gbl_trisc,5
0869  3032  	MOVLW 0x32
086A  1283  	BCF STATUS, RP0
086B  00F7  	MOVWF delay_10us_00000_arg_del
086C  118A  	BCF PCLATH,3
086D  2077  	CALL delay_10us_00000
086E  1683  	BSF STATUS, RP0
086F  1687  	BSF gbl_trisc,5
0870  3007  	MOVLW 0x07
0871  1283  	BCF STATUS, RP0
0872  00F7  	MOVWF delay_10us_00000_arg_del
0873  2077  	CALL delay_10us_00000
0874  1A87  	BTFSC gbl_portc,5
0875  01F0  	CLRF gbl_oneWireIsPresent
0876  3032  	MOVLW 0x32
0877  00F7  	MOVWF delay_10us_00000_arg_del
0878  2077  	CALL delay_10us_00000
0879  0008  	RETURN
087A        ; } oneWireBusReset function end

	ORG 0x0000087A
087A        initialise_00000
087A        ; { initialise ; function begin
087A  1683  	BSF STATUS, RP0
087B  1303  	BCF STATUS, RP1
087C  0185  	CLRF gbl_trisa
087D  1283  	BCF STATUS, RP0
087E  0185  	CLRF gbl_porta
087F  1683  	BSF STATUS, RP0
0880  0186  	CLRF gbl_trisb
0881  300E  	MOVLW 0x0E
0882  1283  	BCF STATUS, RP0
0883  0086  	MOVWF gbl_portb
0884  3021  	MOVLW 0x21
0885  1683  	BSF STATUS, RP0
0886  0087  	MOVWF gbl_trisc
0887  3038  	MOVLW 0x38
0888  1283  	BCF STATUS, RP0
0889  0087  	MOVWF gbl_portc
088A  1683  	BSF STATUS, RP0
088B  0181  	CLRF gbl_option_reg
088C  1781  	BSF gbl_option_reg,7
088D  3007  	MOVLW 0x07
088E  009F  	MOVWF gbl_adcon1
088F  1501  	BSF gbl_option_reg,2
0890  1481  	BSF gbl_option_reg,1
0891  1401  	BSF gbl_option_reg,0
0892  303D  	MOVLW 0x3D
0893  1283  	BCF STATUS, RP0
0894  0081  	MOVWF gbl_tmr0
0895  110B  	BCF gbl_intcon,2
0896  168B  	BSF gbl_intcon,5
0897  3007  	MOVLW 0x07
0898  0090  	MOVWF gbl_t1con
0899  30FF  	MOVLW 0xFF
089A  008F  	MOVWF gbl_tmr1h
089B  008E  	MOVWF gbl_tmr1l
089C  1683  	BSF STATUS, RP0
089D  140C  	BSF gbl_pie1,0
089E  1283  	BCF STATUS, RP0
089F  01CD  	CLRF gbl_cTask
08A0  178B  	BSF gbl_intcon,7
08A1  170B  	BSF gbl_intcon,6
08A2  3001  	MOVLW 0x01
08A3  00F3  	MOVWF i2c_INIT_00000_arg_i2c_divisor
08A4  118A  	BCF PCLATH,3
08A5  24F5  	CALL i2c_INIT_00000
08A6  2604  	CALL at24c32Rea_0002D
08A7  300F  	MOVLW 0x0F
08A8  00F3  	MOVWF ds3231Read_0001E_arg_cRegAddress
08A9  2524  	CALL ds3231Read_0001E
08AA  0875  	MOVF CompTempVarRet554, W
08AB  00F2  	MOVWF initialise_00000_1_cStatus
08AC  158A  	BSF PCLATH,3
08AD  1FF2  	BTFSS initialise_00000_1_cStatus,7
08AE  28B2  	GOTO	label147
08AF  118A  	BCF PCLATH,3
08B0  2539  	CALL ds3231Init_00000
08B1  2508  	CALL ds3231Writ_0001C
08B2        label147
08B2  118A  	BCF PCLATH,3
08B3  24C8  	CALL tm1638Disp_00021
08B4  22A4  	CALL tm1638Upda_00022
08B5  0008  	RETURN
08B6        ; } initialise function end

	ORG 0x000008B6
08B6        ds3231Read_0001D
08B6        ; { ds3231ReadDateTime ; function begin
08B6  118A  	BCF PCLATH,3
08B7  2126  	CALL i2c_START_00000
08B8  30D0  	MOVLW 0xD0
08B9  00F5  	MOVWF i2c_WRITE_00000_arg_i2c_data
08BA  20A5  	CALL i2c_WRITE_00000
08BB  01F5  	CLRF i2c_WRITE_00000_arg_i2c_data
08BC  20A5  	CALL i2c_WRITE_00000
08BD  20F6  	CALL i2c_STOP_00000
08BE  2126  	CALL i2c_START_00000
08BF  30D1  	MOVLW 0xD1
08C0  00F5  	MOVWF i2c_WRITE_00000_arg_i2c_data
08C1  20A5  	CALL i2c_WRITE_00000
08C2  01F5  	CLRF i2c_READ_00000_arg_ack_status
08C3  21DE  	CALL i2c_READ_00000
08C4  0878  	MOVF CompTempVarRet553, W
08C5  00B5  	MOVWF gbl_gBcdSecond
08C6  01F5  	CLRF i2c_READ_00000_arg_ack_status
08C7  21DE  	CALL i2c_READ_00000
08C8  0878  	MOVF CompTempVarRet553, W
08C9  00B6  	MOVWF gbl_gBcdMinute
08CA  01F5  	CLRF i2c_READ_00000_arg_ack_status
08CB  21DE  	CALL i2c_READ_00000
08CC  0878  	MOVF CompTempVarRet553, W
08CD  00B7  	MOVWF gbl_gBcdHour
08CE  01F5  	CLRF i2c_READ_00000_arg_ack_status
08CF  21DE  	CALL i2c_READ_00000
08D0  0878  	MOVF CompTempVarRet553, W
08D1  00B8  	MOVWF gbl_gDayOfWeek
08D2  01F5  	CLRF i2c_READ_00000_arg_ack_status
08D3  21DE  	CALL i2c_READ_00000
08D4  0878  	MOVF CompTempVarRet553, W
08D5  00B9  	MOVWF gbl_gBcdDayOfMonth
08D6  01F5  	CLRF i2c_READ_00000_arg_ack_status
08D7  21DE  	CALL i2c_READ_00000
08D8  0878  	MOVF CompTempVarRet553, W
08D9  00BA  	MOVWF gbl_gBcdMonth
08DA  3001  	MOVLW 0x01
08DB  00F5  	MOVWF i2c_READ_00000_arg_ack_status
08DC  21DE  	CALL i2c_READ_00000
08DD  0878  	MOVF CompTempVarRet553, W
08DE  00BB  	MOVWF gbl_gBcdYear
08DF  20F6  	CALL i2c_STOP_00000
08E0  0008  	RETURN
08E1        ; } ds3231ReadDateTime function end

	ORG 0x000008E1
08E1        main
08E1        ; { main ; function begin
08E1  207A  	CALL initialise_00000
08E2        label148
08E2  084D  	MOVF gbl_cTask, W
08E3  3C00  	SUBLW 0x00
08E4  158A  	BSF PCLATH,3
08E5  1803  	BTFSC STATUS,C
08E6  28E2  	GOTO	label148
08E7  1D4D  	BTFSS gbl_cTask,2
08E8  2998  	GOTO	label168
08E9  08D0  	MOVF gbl_gcSetMode, F
08EA  1D03  	BTFSS STATUS,Z
08EB  2926  	GOTO	label154
08EC  20B6  	CALL ds3231Read_0001D
08ED  0835  	MOVF gbl_gBcdSecond, W
08EE  3A29  	XORLW 0x29
08EF  158A  	BSF PCLATH,3
08F0  1903  	BTFSC STATUS,Z
08F1  28F6  	GOTO	label149
08F2  0835  	MOVF gbl_gBcdSecond, W
08F3  3A59  	XORLW 0x59
08F4  1D03  	BTFSS STATUS,Z
08F5  28FA  	GOTO	label150
08F6        label149
08F6  2061  	CALL oneWireBus_00017
08F7  27DF  	CALL startTemp_00000
08F8  158A  	BSF PCLATH,3
08F9  2904  	GOTO	label152
08FA        label150
08FA  08B5  	MOVF gbl_gBcdSecond, F
08FB  1903  	BTFSC STATUS,Z
08FC  2901  	GOTO	label151
08FD  0835  	MOVF gbl_gBcdSecond, W
08FE  3A30  	XORLW 0x30
08FF  1D03  	BTFSS STATUS,Z
0900  2904  	GOTO	label152
0901        label151
0901  2061  	CALL oneWireBus_00017
0902  27E7  	CALL readTemp_00000
0903  2544  	CALL convertTem_0002B
0904        label152
0904  08B5  	MOVF gbl_gBcdSecond, F
0905  158A  	BSF PCLATH,3
0906  1D03  	BTFSS STATUS,Z
0907  2926  	GOTO	label154
0908  0838  	MOVF gbl_gDayOfWeek, W
0909  3A07  	XORLW 0x07
090A  1D03  	BTFSS STATUS,Z
090B  2926  	GOTO	label154
090C  0839  	MOVF gbl_gBcdDayOfMonth, W
090D  3C24  	SUBLW 0x24
090E  1803  	BTFSC STATUS,C
090F  2926  	GOTO	label154
0910  0337  	DECF gbl_gBcdHour, W
0911  1D03  	BTFSS STATUS,Z
0912  291A  	GOTO	label153
0913  083A  	MOVF gbl_gBcdMonth, W
0914  3A03  	XORLW 0x03
0915  1D03  	BTFSS STATUS,Z
0916  291A  	GOTO	label153
0917  0AB7  	INCF gbl_gBcdHour, F
0918  118A  	BCF PCLATH,3
0919  2508  	CALL ds3231Writ_0001C
091A        label153
091A  0837  	MOVF gbl_gBcdHour, W
091B  3A02  	XORLW 0x02
091C  158A  	BSF PCLATH,3
091D  1D03  	BTFSS STATUS,Z
091E  2926  	GOTO	label154
091F  083A  	MOVF gbl_gBcdMonth, W
0920  3A10  	XORLW 0x10
0921  1D03  	BTFSS STATUS,Z
0922  2926  	GOTO	label154
0923  03B7  	DECF gbl_gBcdHour, F
0924  118A  	BCF PCLATH,3
0925  2508  	CALL ds3231Writ_0001C
0926        label154
0926  08D2  	MOVF gbl_gcTriggerMode, F
0927  158A  	BSF PCLATH,3
0928  1D03  	BTFSS STATUS,Z
0929  298F  	GOTO	label166
092A  0856  	MOVF gbl_gBcdWhiteOffHour, W
092B  0654  	XORWF gbl_gBcdWhiteOnHour, W
092C  1D03  	BTFSS STATUS,Z
092D  2932  	GOTO	label155
092E  0855  	MOVF gbl_gBcdWhiteOffMinute, W
092F  0653  	XORWF gbl_gBcdWhiteOnMinute, W
0930  1903  	BTFSC STATUS,Z
0931  2942  	GOTO	label157
0932        label155
0932  0854  	MOVF gbl_gBcdWhiteOnHour, W
0933  0637  	XORWF gbl_gBcdHour, W
0934  1D03  	BTFSS STATUS,Z
0935  293A  	GOTO	label156
0936  0853  	MOVF gbl_gBcdWhiteOnMinute, W
0937  0636  	XORWF gbl_gBcdMinute, W
0938  1903  	BTFSC STATUS,Z
0939  1487  	BSF gbl_portc,1
093A        label156
093A  0856  	MOVF gbl_gBcdWhiteOffHour, W
093B  0637  	XORWF gbl_gBcdHour, W
093C  1D03  	BTFSS STATUS,Z
093D  2942  	GOTO	label157
093E  0855  	MOVF gbl_gBcdWhiteOffMinute, W
093F  0636  	XORWF gbl_gBcdMinute, W
0940  1903  	BTFSC STATUS,Z
0941  1087  	BCF gbl_portc,1
0942        label157
0942  085A  	MOVF gbl_gBcdBlueOffHour, W
0943  0658  	XORWF gbl_gBcdBlueOnHour, W
0944  1D03  	BTFSS STATUS,Z
0945  294A  	GOTO	label158
0946  0859  	MOVF gbl_gBcdBlueOffMinute, W
0947  0657  	XORWF gbl_gBcdBlueOnMinute, W
0948  1903  	BTFSC STATUS,Z
0949  295A  	GOTO	label160
094A        label158
094A  0858  	MOVF gbl_gBcdBlueOnHour, W
094B  0637  	XORWF gbl_gBcdHour, W
094C  1D03  	BTFSS STATUS,Z
094D  2952  	GOTO	label159
094E  0857  	MOVF gbl_gBcdBlueOnMinute, W
094F  0636  	XORWF gbl_gBcdMinute, W
0950  1903  	BTFSC STATUS,Z
0951  1507  	BSF gbl_portc,2
0952        label159
0952  085A  	MOVF gbl_gBcdBlueOffHour, W
0953  0637  	XORWF gbl_gBcdHour, W
0954  1D03  	BTFSS STATUS,Z
0955  295A  	GOTO	label160
0956  0859  	MOVF gbl_gBcdBlueOffMinute, W
0957  0636  	XORWF gbl_gBcdMinute, W
0958  1903  	BTFSC STATUS,Z
0959  1107  	BCF gbl_portc,2
095A        label160
095A  085E  	MOVF gbl_gBcdBlue2OffHour, W
095B  065C  	XORWF gbl_gBcdBlue2OnHour, W
095C  1D03  	BTFSS STATUS,Z
095D  2962  	GOTO	label161
095E  085D  	MOVF gbl_gBcdBlue2OffMinute, W
095F  065B  	XORWF gbl_gBcdBlue2OnMinute, W
0960  1903  	BTFSC STATUS,Z
0961  2972  	GOTO	label163
0962        label161
0962  085C  	MOVF gbl_gBcdBlue2OnHour, W
0963  0637  	XORWF gbl_gBcdHour, W
0964  1D03  	BTFSS STATUS,Z
0965  296A  	GOTO	label162
0966  085B  	MOVF gbl_gBcdBlue2OnMinute, W
0967  0636  	XORWF gbl_gBcdMinute, W
0968  1903  	BTFSC STATUS,Z
0969  1507  	BSF gbl_portc,2
096A        label162
096A  085E  	MOVF gbl_gBcdBlue2OffHour, W
096B  0637  	XORWF gbl_gBcdHour, W
096C  1D03  	BTFSS STATUS,Z
096D  2972  	GOTO	label163
096E  085D  	MOVF gbl_gBcdBlue2OffMinute, W
096F  0636  	XORWF gbl_gBcdMinute, W
0970  1903  	BTFSC STATUS,Z
0971  1107  	BCF gbl_portc,2
0972        label163
0972  0860  	MOVF gbl_gBcdFanOffTemp, W
0973  065F  	XORWF gbl_gBcdFanOnTemp, W
0974  1903  	BTFSC STATUS,Z
0975  297E  	GOTO	label164
0976  085F  	MOVF gbl_gBcdFanOnTemp, W
0977  024B  	SUBWF gbl_giDS3231ValueTruncCBCD, W
0978  1803  	BTFSC STATUS,C
0979  1485  	BSF gbl_porta,1
097A  084B  	MOVF gbl_giDS3231ValueTruncCBCD, W
097B  0260  	SUBWF gbl_gBcdFanOffTemp, W
097C  1803  	BTFSC STATUS,C
097D  1085  	BCF gbl_porta,1
097E        label164
097E  194E  	BTFSC gbl_gbFanOn,2
097F  1485  	BSF gbl_porta,1
0980  0862  	MOVF gbl_gBcdHeaterOffTemp, W
0981  0661  	XORWF gbl_gBcdHeaterOnTemp, W
0982  1903  	BTFSC STATUS,Z
0983  298C  	GOTO	label165
0984  084B  	MOVF gbl_giDS3231ValueTruncCBCD, W
0985  0261  	SUBWF gbl_gBcdHeaterOnTemp, W
0986  1803  	BTFSC STATUS,C
0987  1405  	BSF gbl_porta,0
0988  0862  	MOVF gbl_gBcdHeaterOffTemp, W
0989  024B  	SUBWF gbl_giDS3231ValueTruncCBCD, W
098A  1803  	BTFSC STATUS,C
098B  1005  	BCF gbl_porta,0
098C        label165
098C  08CC  	MOVF gbl_gbDS3231IsMinus, F
098D  1D03  	BTFSS STATUS,Z
098E  1405  	BSF gbl_porta,0
098F        label166
098F  08D2  	MOVF gbl_gcTriggerMode, F
0990  1D03  	BTFSS STATUS,Z
0991  2997  	GOTO	label167
0992  08D0  	MOVF gbl_gcSetMode, F
0993  1D03  	BTFSS STATUS,Z
0994  2997  	GOTO	label167
0995  118A  	BCF PCLATH,3
0996  22A4  	CALL tm1638Upda_00022
0997        label167
0997  114D  	BCF gbl_cTask,2
0998        label168
0998  158A  	BSF PCLATH,3
0999  1CCD  	BTFSS gbl_cTask,1
099A  28E2  	GOTO	label148
099B  083E  	MOVF gbl_iTimer0Counts, W
099C  3C09  	SUBLW 0x09
099D  1803  	BTFSC STATUS,C
099E  29A9  	GOTO	label170
099F  0ABF  	INCF gbl_iFlashDigitOff, F
09A0  01BE  	CLRF gbl_iTimer0Counts
09A1  08D0  	MOVF gbl_gcSetMode, F
09A2  1D03  	BTFSS STATUS,Z
09A3  29A7  	GOTO	label169
09A4  08D2  	MOVF gbl_gcTriggerMode, F
09A5  1903  	BTFSC STATUS,Z
09A6  29A9  	GOTO	label170
09A7        label169
09A7  118A  	BCF PCLATH,3
09A8  22A4  	CALL tm1638Upda_00022
09A9        label170
09A9  118A  	BCF PCLATH,3
09AA  27BC  	CALL tm1638Read_00026
09AB  086C  	MOVF gbl_tm1638KeysOld, W
09AC  066B  	XORWF gbl_tm1638Keys, W
09AD  158A  	BSF PCLATH,3
09AE  1903  	BTFSC STATUS,Z
09AF  29B6  	GOTO	label171
09B0  118A  	BCF PCLATH,3
09B1  27F5  	CALL processKey_0002A
09B2  118A  	BCF PCLATH,3
09B3  22A4  	CALL tm1638Upda_00022
09B4  086B  	MOVF gbl_tm1638Keys, W
09B5  00EC  	MOVWF gbl_tm1638KeysOld
09B6        label171
09B6  10CD  	BCF gbl_cTask,1
09B7  158A  	BSF PCLATH,3
09B8  28E2  	GOTO	label148
09B9        ; } main function end

	ORG 0x000009B9
09B9        _startup
09B9  1283  	BCF STATUS, RP0
09BA  1303  	BCF STATUS, RP1
09BB  01B5  	CLRF gbl_gBcdSecond
09BC  01B6  	CLRF gbl_gBcdMinute
09BD  01B7  	CLRF gbl_gBcdHour
09BE  3001  	MOVLW 0x01
09BF  00B8  	MOVWF gbl_gDayOfWeek
09C0  3001  	MOVLW 0x01
09C1  00B9  	MOVWF gbl_gBcdDayOfMonth
09C2  3001  	MOVLW 0x01
09C3  00BA  	MOVWF gbl_gBcdMonth
09C4  3023  	MOVLW 0x23
09C5  00BB  	MOVWF gbl_gBcdYear
09C6  3000  	MOVLW 0x00
09C7  00BC  	MOVWF gbl_gDaysInMonth
09C8  3001  	MOVLW 0x01
09C9  00BD  	MOVWF gbl_gLeapYears
09CA  01BE  	CLRF gbl_iTimer0Counts
09CB  01BF  	CLRF gbl_iFlashDigitOff
09CC  3008  	MOVLW 0x08
09CD  00C8  	MOVWF gbl_iDigitToFlash
09CE  3001  	MOVLW 0x01
09CF  00C9  	MOVWF gbl_cTempH
09D0  3046  	MOVLW 0x46
09D1  00CA  	MOVWF gbl_cTempL
09D2  01B3  	CLRF gbl_giDS3231ValueBCD
09D3  01B4  	CLRF gbl_giDS3231ValueBCD+D'1'
09D4  01CB  	CLRF gbl_giDS3231ValueTruncCBCD
09D5  01CC  	CLRF gbl_gbDS3231IsMinus
09D6  01CD  	CLRF gbl_cTask
09D7  104E  	BCF gbl_gbWhiteOn,0
09D8  10CE  	BCF gbl_gbBlueOn,1
09D9  114E  	BCF gbl_gbFanOn,2
09DA  11CE  	BCF gbl_gbHeaterOn,3
09DB  124E  	BCF gbl_gbFlashOff,4
09DC  01CF  	CLRF gbl_gcDisplayMode
09DD  01D0  	CLRF gbl_gcSetMode
09DE  01D1  	CLRF gbl_gcHourMode
09DF  01D2  	CLRF gbl_gcTriggerMode
09E0  01D3  	CLRF gbl_gBcdWhiteOnMinute
09E1  01D4  	CLRF gbl_gBcdWhiteOnHour
09E2  01D5  	CLRF gbl_gBcdWhiteOffMinute
09E3  01D6  	CLRF gbl_gBcdWhiteOffHour
09E4  01D7  	CLRF gbl_gBcdBlueOnMinute
09E5  01D8  	CLRF gbl_gBcdBlueOnHour
09E6  01D9  	CLRF gbl_gBcdBlueOffMinute
09E7  01DA  	CLRF gbl_gBcdBlueOffHour
09E8  01DB  	CLRF gbl_gBcdBlue2OnMinute
09E9  01DC  	CLRF gbl_gBcdBlue2OnHour
09EA  01DD  	CLRF gbl_gBcdBlue2OffMinute
09EB  01DE  	CLRF gbl_gBcdBlue2OffHour
09EC  3028  	MOVLW 0x28
09ED  00DF  	MOVWF gbl_gBcdFanOnTemp
09EE  3027  	MOVLW 0x27
09EF  00E0  	MOVWF gbl_gBcdFanOffTemp
09F0  3024  	MOVLW 0x24
09F1  00E1  	MOVWF gbl_gBcdHeaterOnTemp
09F2  3025  	MOVLW 0x25
09F3  00E2  	MOVWF gbl_gBcdHeaterOffTemp
09F4  3008  	MOVLW 0x08
09F5  00E3  	MOVWF gbl_tm1638MaxDigits
09F6  3002  	MOVLW 0x02
09F7  00E4  	MOVWF gbl_tm1638DisplayNumtoSeg
09F8  3080  	MOVLW 0x80
09F9  00E5  	MOVWF gbl_tm1638Dot
09FA  3007  	MOVLW 0x07
09FB  00E6  	MOVWF gbl_tm1638Brightness
09FC  3040  	MOVLW 0x40
09FD  00E7  	MOVWF gbl_tm1638ByteSetData
09FE  3042  	MOVLW 0x42
09FF  00E8  	MOVWF gbl_tm1638ByteReadData
0A00  30C0  	MOVLW 0xC0
0A01  00E9  	MOVWF gbl_tm1638ByteSetAddr
0A02  3088  	MOVLW 0x88
0A03  00EA  	MOVWF gbl_tm1638ByteSetOn
0A04  01A0  	CLRF gbl_tm1638Data
0A05  01A1  	CLRF gbl_tm1638Data+D'1'
0A06  01A2  	CLRF gbl_tm1638Data+D'2'
0A07  01A3  	CLRF gbl_tm1638Data+D'3'
0A08  01A4  	CLRF gbl_tm1638Data+D'4'
0A09  01A5  	CLRF gbl_tm1638Data+D'5'
0A0A  01A6  	CLRF gbl_tm1638Data+D'6'
0A0B  01A7  	CLRF gbl_tm1638Data+D'7'
0A0C  01A8  	CLRF gbl_tm1638LEDs
0A0D  01A9  	CLRF gbl_tm1638LEDs+D'1'
0A0E  01AA  	CLRF gbl_tm1638LEDs+D'2'
0A0F  01AB  	CLRF gbl_tm1638LEDs+D'3'
0A10  01AC  	CLRF gbl_tm1638LEDs+D'4'
0A11  01AD  	CLRF gbl_tm1638LEDs+D'5'
0A12  01AE  	CLRF gbl_tm1638LEDs+D'6'
0A13  01AF  	CLRF gbl_tm1638LEDs+D'7'
0A14  01EB  	CLRF gbl_tm1638Keys
0A15  01EC  	CLRF gbl_tm1638KeysOld
0A16  01ED  	CLRF gbl_iPrintStartDigit
0A17  3008  	MOVLW 0x08
0A18  00EE  	MOVWF gbl_iPrintDotDigit
0A19  3001  	MOVLW 0x01
0A1A  00EF  	MOVWF gbl_iBcdAdjustment
0A1B  01F0  	CLRF gbl_oneWireIsPresent
0A1C  01F1  	CLRF gbl_oneWireResetStage
0A1D  158A  	BSF PCLATH,3
0A1E  120A  	BCF PCLATH,4
0A1F  28E1  	GOTO	main
	ORG 0x00000A20
0A20        interrupt
0A20        ; { interrupt ; function begin
0A20  1D0B  	BTFSS gbl_intcon,2
0A21  2A29  	GOTO	label173
0A22  1283  	BCF STATUS, RP0
0A23  1303  	BCF STATUS, RP1
0A24  0ABE  	INCF gbl_iTimer0Counts, F
0A25  303D  	MOVLW 0x3D
0A26  0081  	MOVWF gbl_tmr0
0A27  14CD  	BSF gbl_cTask,1
0A28  110B  	BCF gbl_intcon,2
0A29        label173
0A29  1283  	BCF STATUS, RP0
0A2A  1303  	BCF STATUS, RP1
0A2B  1C0C  	BTFSS gbl_pir1,0
0A2C  2A32  	GOTO	label174
0A2D  30FF  	MOVLW 0xFF
0A2E  008F  	MOVWF gbl_tmr1h
0A2F  008E  	MOVWF gbl_tmr1l
0A30  100C  	BCF gbl_pir1,0
0A31  154D  	BSF gbl_cTask,2
0A32        label174
0A32  0E32  	SWAPF Int1BContext+D'2', W
0A33  0084  	MOVWF FSR
0A34  0E31  	SWAPF Int1BContext+D'1', W
0A35  008A  	MOVWF PCLATH
0A36  0E30  	SWAPF Int1BContext, W
0A37  0083  	MOVWF STATUS
0A38  0EFF  	SWAPF Int1Context, F
0A39  0E7F  	SWAPF Int1Context, W
0A3A  0009  	RETFIE
0A3B        ; } interrupt function end

	ORG 0x00002007
2007  3FB1  	DW 0x3FB1
