;/////////////////////////////////////////////////////////////////////////////////
;// Code Generator: BoostC Compiler - http://www.sourceboost.com
;// Version       : 8.01
;// License Type  : Pro License
;// Limitations   : PIC12,PIC16 max code size:Unlimited, max RAM banks:Unlimited
;/////////////////////////////////////////////////////////////////////////////////

	ORG 0x00000000
0000  2FDE  	GOTO	_startup
	ORG 0x00000004
0004  00FF  	MOVWF Int1Context
0005  0E03  	SWAPF STATUS, W
0006  1283  	BCF STATUS, RP0
0007  1303  	BCF STATUS, RP1
0008  00B0  	MOVWF Int1BContext
0009  0E0A  	SWAPF PCLATH, W
000A  00B1  	MOVWF Int1BContext+D'1'
000B  0E04  	SWAPF FSR, W
000C  00B2  	MOVWF Int1BContext+D'2'
000D  158A  	BSF PCLATH,3
000E  120A  	BCF PCLATH,4
000F  2840  	GOTO	interrupt
	ORG 0x00000010
0010        delay_us_00000
0010        ; { delay_us ; function begin
0010  3003  	MOVLW 0x03
0011  07F2  	ADDWF delay_us_00000_arg_del, F
0012  0CF2  	RRF delay_us_00000_arg_del, F
0013  0CF2  	RRF delay_us_00000_arg_del, F
0014  307F  	MOVLW 0x7F
0015  05F2  	ANDWF delay_us_00000_arg_del, F
0016        label1
0016  0000  	NOP
0017  0BF2  	DECFSZ delay_us_00000_arg_del, F
0018  2816  	GOTO	label1
0019  0008  	RETURN
001A        ; } delay_us function end

	ORG 0x0000001A
001A        __rom_get_00000
001A        ; { __rom_get ; function begin
001A  0874  	MOVF __rom_get_00000_arg_objNumb, W
001B  00F7  	MOVWF __rom_get_00000_1_romAddr+D'1'
001C  01F6  	CLRF __rom_get_00000_1_romAddr
001D  1003  	BCF STATUS,C
001E  0DF7  	RLF __rom_get_00000_1_romAddr+D'1', F
001F  0DF6  	RLF __rom_get_00000_1_romAddr, F
0020  0DF7  	RLF __rom_get_00000_1_romAddr+D'1', F
0021  0DF6  	RLF __rom_get_00000_1_romAddr, F
0022  07F7  	ADDWF __rom_get_00000_1_romAddr+D'1', F
0023  1803  	BTFSC STATUS,C
0024  0AF6  	INCF __rom_get_00000_1_romAddr, F
0025  07F7  	ADDWF __rom_get_00000_1_romAddr+D'1', F
0026  1803  	BTFSC STATUS,C
0027  0AF6  	INCF __rom_get_00000_1_romAddr, F
0028  3033  	MOVLW	LOW( label2 )
0029  07F7  	ADDWF __rom_get_00000_1_romAddr+D'1', F
002A  1803  	BTFSC STATUS,C
002B  0AF6  	INCF __rom_get_00000_1_romAddr, F
002C  3000  	MOVLW	HIGH( label2 )
002D  0776  	ADDWF __rom_get_00000_1_romAddr, W
002E  008A  	MOVWF PCLATH
002F  0875  	MOVF __rom_get_00000_arg_idx, W
0030  00F6  	MOVWF __rom_get_00000_1_romAddr
0031  0877  	MOVF __rom_get_00000_1_romAddr+D'1', W
0032  0082  	MOVWF PCL
0033        label2
0033  3000  	MOVLW	HIGH( label3 )
0034  008A  	MOVWF PCLATH
0035  3000  	MOVLW	HIGH( label4 )
0036  00F7  	MOVWF __rom_get_00000_1_romAddr+D'1'
0037  3049  	MOVLW	LOW( label4 )
0038  2842  	GOTO	label3
0039  3000  	MOVLW	HIGH( label3 )
003A  008A  	MOVWF PCLATH
003B  3000  	MOVLW	HIGH( label5 )
003C  00F7  	MOVWF __rom_get_00000_1_romAddr+D'1'
003D  3055  	MOVLW	LOW( label5 )
003E  2842  	GOTO	label3
003F  3000  	MOVLW	HIGH( label6 )
0040  00F7  	MOVWF __rom_get_00000_1_romAddr+D'1'
0041  306D  	MOVLW	LOW( label6 )
0042        label3
0042  07F6  	ADDWF __rom_get_00000_1_romAddr, F
0043  1803  	BTFSC STATUS,C
0044  0AF7  	INCF __rom_get_00000_1_romAddr+D'1', F
0045  0877  	MOVF __rom_get_00000_1_romAddr+D'1', W
0046  008A  	MOVWF PCLATH
0047  0876  	MOVF __rom_get_00000_1_romAddr, W
0048  0082  	MOVWF PCL
0049        label4
0049  3431  	RETLW 0x31
004A  3428  	RETLW 0x28
004B  3431  	RETLW 0x31
004C  3430  	RETLW 0x30
004D  3431  	RETLW 0x31
004E  3430  	RETLW 0x30
004F  3431  	RETLW 0x31
0050  3431  	RETLW 0x31
0051  3430  	RETLW 0x30
0052  3431  	RETLW 0x31
0053  3430  	RETLW 0x30
0054  3431  	RETLW 0x31
0055        label5
0055  3404  	RETLW 0x04
0056  3408  	RETLW 0x08
0057  3412  	RETLW 0x12
0058  3416  	RETLW 0x16
0059  3420  	RETLW 0x20
005A  3424  	RETLW 0x24
005B  3428  	RETLW 0x28
005C  3432  	RETLW 0x32
005D  3436  	RETLW 0x36
005E  3440  	RETLW 0x40
005F  3444  	RETLW 0x44
0060  3448  	RETLW 0x48
0061  3452  	RETLW 0x52
0062  3456  	RETLW 0x56
0063  3460  	RETLW 0x60
0064  3464  	RETLW 0x64
0065  3468  	RETLW 0x68
0066  3472  	RETLW 0x72
0067  3476  	RETLW 0x76
0068  3480  	RETLW 0x80
0069  3484  	RETLW 0x84
006A  3488  	RETLW 0x88
006B  3492  	RETLW 0x92
006C  3496  	RETLW 0x96
006D        label6
006D  343F  	RETLW 0x3F
006E  3406  	RETLW 0x06
006F  345B  	RETLW 0x5B
0070  344F  	RETLW 0x4F
0071  3466  	RETLW 0x66
0072  346D  	RETLW 0x6D
0073  347D  	RETLW 0x7D
0074  3407  	RETLW 0x07
0075  347F  	RETLW 0x7F
0076  346F  	RETLW 0x6F
0077        ; } __rom_get function end

	ORG 0x00000077
0077        delay_10us_00000
0077        ; { delay_10us ; function begin
0077        label7
0077  0000  	NOP
0078  0000  	NOP
0079  0000  	NOP
007A  0000  	NOP
007B  0000  	NOP
007C  0000  	NOP
007D  0000  	NOP
007E  0BF2  	DECFSZ delay_10us_00000_arg_del, F
007F  2877  	GOTO	label7
0080  0008  	RETURN
0081        ; } delay_10us function end

	ORG 0x00000081
0081        delay_ms_00000
0081        ; { delay_ms ; function begin
0081  08EC  	MOVF delay_ms_00000_arg_del, F
0082  1D03  	BTFSS STATUS,Z
0083  2885  	GOTO	label8
0084  0008  	RETURN
0085        label8
0085  30F9  	MOVLW 0xF9
0086        label9
0086  3EFF  	ADDLW 0xFF
0087  1D03  	BTFSS STATUS,Z
0088  2886  	GOTO	label9
0089  0000  	NOP
008A  0BEC  	DECFSZ delay_ms_00000_arg_del, F
008B  2885  	GOTO	label8
008C  0008  	RETURN
008D        ; } delay_ms function end

	ORG 0x0000008D
008D        nibbleTo7S_00020
008D        ; { nibbleTo7Seg ; function begin
008D  085E  	MOVF gbl_tm1638DisplayNumtoSeg, W
008E  00F4  	MOVWF __rom_get_00000_arg_objNumb
008F  300F  	MOVLW 0x0F
0090  0572  	ANDWF nibbleTo7S_00020_arg_bNibble, W
0091  00F5  	MOVWF __rom_get_00000_arg_idx
0092  201A  	CALL __rom_get_00000
0093  00F3  	MOVWF nibbleTo7S_00020_1_s7SegDisplay
0094  0868  	MOVF gbl_iPrintDotDigit, W
0095  0667  	XORWF gbl_iPrintStartDigit, W
0096  118A  	BCF PCLATH,3
0097  120A  	BCF PCLATH,4
0098  1D03  	BTFSS STATUS,Z
0099  289C  	GOTO	label10
009A  085F  	MOVF gbl_tm1638Dot, W
009B  07F3  	ADDWF nibbleTo7S_00020_1_s7SegDisplay, F
009C        label10
009C  1383  	BCF	STATUS,IRP
009D  3020  	MOVLW LOW(gbl_tm1638Data+D'0')
009E  0084  	MOVWF FSR
009F  0867  	MOVF gbl_iPrintStartDigit, W
00A0  0784  	ADDWF FSR, F
00A1  0873  	MOVF nibbleTo7S_00020_1_s7SegDisplay, W
00A2  0080  	MOVWF INDF
00A3  0AE7  	INCF gbl_iPrintStartDigit, F
00A4  0008  	RETURN
00A5        ; } nibbleTo7Seg function end

	ORG 0x000000A5
00A5        i2c_WRITE_00000
00A5        ; { i2c_WRITE ; function begin
00A5  11C6  	BCF i2c_WRITE_00000_1_l_bclif,3
00A6  11C5  	BCF i2c_WRITE_00000_1_l_sspif,3
00A7  13C0  	BCF i2c_WRITE_00000_1_l_wcol,7
00A8  086F  	MOVF i2c_WRITE_00000_arg_i2c_data, W
00A9  00C4  	MOVWF i2c_WRITE_00000_1_i2c_SSPBUF
00AA  1187  	BCF i2c_WRITE_00000_1_l_scl,3
00AB  1207  	BCF i2c_WRITE_00000_1_l_sda,4
00AC  1142  	BCF i2c_WRITE_00000_1_l_rw,2
00AD  3080  	MOVLW 0x80
00AE  00F0  	MOVWF i2c_WRITE_00000_1_BitMask
00AF        label11
00AF  08F0  	MOVF i2c_WRITE_00000_1_BitMask, F
00B0  1903  	BTFSC STATUS,Z
00B1  28D2  	GOTO	label16
00B2  0870  	MOVF i2c_WRITE_00000_1_BitMask, W
00B3  056F  	ANDWF i2c_WRITE_00000_arg_i2c_data, W
00B4  1903  	BTFSC STATUS,Z
00B5  28B9  	GOTO	label12
00B6  1683  	BSF STATUS, RP0
00B7  1607  	BSF i2c_WRITE_00000_1_l_sda_tris,4
00B8  28BB  	GOTO	label13
00B9        label12
00B9  1683  	BSF STATUS, RP0
00BA  1207  	BCF i2c_WRITE_00000_1_l_sda_tris,4
00BB        label13
00BB  300A  	MOVLW 0x0A
00BC  1283  	BCF STATUS, RP0
00BD  00F2  	MOVWF delay_us_00000_arg_del
00BE  2010  	CALL delay_us_00000
00BF  1683  	BSF STATUS, RP0
00C0  1587  	BSF i2c_WRITE_00000_1_l_scl_tris,3
00C1        label14
00C1  1283  	BCF STATUS, RP0
00C2  1987  	BTFSC i2c_WRITE_00000_1_l_scl,3
00C3  28C6  	GOTO	label15
00C4  0064  	CLRWDT
00C5  28C1  	GOTO	label14
00C6        label15
00C6  300A  	MOVLW 0x0A
00C7  00F2  	MOVWF delay_us_00000_arg_del
00C8  2010  	CALL delay_us_00000
00C9  1683  	BSF STATUS, RP0
00CA  1187  	BCF i2c_WRITE_00000_1_l_scl_tris,3
00CB  300A  	MOVLW 0x0A
00CC  1283  	BCF STATUS, RP0
00CD  00F2  	MOVWF delay_us_00000_arg_del
00CE  2010  	CALL delay_us_00000
00CF  1003  	BCF STATUS,C
00D0  0CF0  	RRF i2c_WRITE_00000_1_BitMask, F
00D1  28AF  	GOTO	label11
00D2        label16
00D2  15C5  	BSF i2c_WRITE_00000_1_l_sspif,3
00D3  1641  	BSF i2c_WRITE_00000_1_l_acken,4
00D4  12C1  	BCF i2c_WRITE_00000_1_l_ackdt,5
00D5  1683  	BSF STATUS, RP0
00D6  1607  	BSF i2c_WRITE_00000_1_l_sda_tris,4
00D7  300A  	MOVLW 0x0A
00D8  1283  	BCF STATUS, RP0
00D9  00F2  	MOVWF delay_us_00000_arg_del
00DA  2010  	CALL delay_us_00000
00DB  1683  	BSF STATUS, RP0
00DC  1587  	BSF i2c_WRITE_00000_1_l_scl_tris,3
00DD        label17
00DD  1283  	BCF STATUS, RP0
00DE  1987  	BTFSC i2c_WRITE_00000_1_l_scl,3
00DF  28E2  	GOTO	label18
00E0  0064  	CLRWDT
00E1  28DD  	GOTO	label17
00E2        label18
00E2  300A  	MOVLW 0x0A
00E3  00F2  	MOVWF delay_us_00000_arg_del
00E4  2010  	CALL delay_us_00000
00E5  1071  	BCF i2c_WRITE_00000_1_local_ack,0
00E6  1A07  	BTFSC i2c_WRITE_00000_1_l_sda,4
00E7  1471  	BSF i2c_WRITE_00000_1_local_ack,0
00E8  300A  	MOVLW 0x0A
00E9  00F2  	MOVWF delay_us_00000_arg_del
00EA  2010  	CALL delay_us_00000
00EB  1683  	BSF STATUS, RP0
00EC  1187  	BCF i2c_WRITE_00000_1_l_scl_tris,3
00ED  1283  	BCF STATUS, RP0
00EE  1241  	BCF i2c_WRITE_00000_1_l_acken,4
00EF  300A  	MOVLW 0x0A
00F0  00F2  	MOVWF delay_us_00000_arg_del
00F1  2010  	CALL delay_us_00000
00F2  01F2  	CLRF CompTempVarRet552
00F3  1871  	BTFSC i2c_WRITE_00000_1_local_ack,0
00F4  0AF2  	INCF CompTempVarRet552, F
00F5  0008  	RETURN
00F6        ; } i2c_WRITE function end

	ORG 0x000000F6
00F6        i2c_STOP_00000
00F6        ; { i2c_STOP ; function begin
00F6  1283  	BCF STATUS, RP0
00F7  1303  	BCF STATUS, RP1
00F8  11C6  	BCF i2c_STOP_00000_1_l_bclif,3
00F9  11C5  	BCF i2c_STOP_00000_1_l_sspif,3
00FA  1541  	BSF i2c_STOP_00000_1_l_pen,2
00FB  300A  	MOVLW 0x0A
00FC  00F2  	MOVWF delay_us_00000_arg_del
00FD  2010  	CALL delay_us_00000
00FE  1187  	BCF i2c_STOP_00000_1_l_scl,3
00FF  1207  	BCF i2c_STOP_00000_1_l_sda,4
0100  1683  	BSF STATUS, RP0
0101  1187  	BCF i2c_STOP_00000_1_l_scl_tris,3
0102  1207  	BCF i2c_STOP_00000_1_l_sda_tris,4
0103  300A  	MOVLW 0x0A
0104  1283  	BCF STATUS, RP0
0105  00F2  	MOVWF delay_us_00000_arg_del
0106  2010  	CALL delay_us_00000
0107  1683  	BSF STATUS, RP0
0108  1587  	BSF i2c_STOP_00000_1_l_scl_tris,3
0109        label19
0109  1283  	BCF STATUS, RP0
010A  1987  	BTFSC i2c_STOP_00000_1_l_scl,3
010B  290E  	GOTO	label20
010C  0064  	CLRWDT
010D  2909  	GOTO	label19
010E        label20
010E  300A  	MOVLW 0x0A
010F  00F2  	MOVWF delay_us_00000_arg_del
0110  2010  	CALL delay_us_00000
0111  1683  	BSF STATUS, RP0
0112  1607  	BSF i2c_STOP_00000_1_l_sda_tris,4
0113  300A  	MOVLW 0x0A
0114  1283  	BCF STATUS, RP0
0115  00F2  	MOVWF delay_us_00000_arg_del
0116  2010  	CALL delay_us_00000
0117  1E07  	BTFSS i2c_STOP_00000_1_l_sda,4
0118  291B  	GOTO	label21
0119  1987  	BTFSC i2c_STOP_00000_1_l_scl,3
011A  291F  	GOTO	label22
011B        label21
011B  15C6  	BSF i2c_STOP_00000_1_l_bclif,3
011C  11C2  	BCF i2c_STOP_00000_1_l_s,3
011D  1141  	BCF i2c_STOP_00000_1_l_pen,2
011E  0008  	RETURN
011F        label22
011F  1642  	BSF i2c_STOP_00000_1_l_p,4
0120  1141  	BCF i2c_STOP_00000_1_l_pen,2
0121  1041  	BCF i2c_STOP_00000_1_l_sen,0
0122  10C1  	BCF i2c_STOP_00000_1_l_rsen,1
0123  11C1  	BCF i2c_STOP_00000_1_l_rcen,3
0124  1241  	BCF i2c_STOP_00000_1_l_acken,4
0125  0008  	RETURN
0126        ; } i2c_STOP function end

	ORG 0x00000126
0126        i2c_START_00000
0126        ; { i2c_START ; function begin
0126  300A  	MOVLW 0x0A
0127  1283  	BCF STATUS, RP0
0128  1303  	BCF STATUS, RP1
0129  00F2  	MOVWF delay_us_00000_arg_del
012A  2010  	CALL delay_us_00000
012B  11C6  	BCF i2c_START_00000_1_l_bclif,3
012C  11C5  	BCF i2c_START_00000_1_l_sspif,3
012D  1441  	BSF i2c_START_00000_1_l_sen,0
012E  1683  	BSF STATUS, RP0
012F  1587  	BSF i2c_START_00000_1_l_scl_tris,3
0130  1607  	BSF i2c_START_00000_1_l_sda_tris,4
0131  1283  	BCF STATUS, RP0
0132  1187  	BCF i2c_START_00000_1_l_scl,3
0133  1207  	BCF i2c_START_00000_1_l_sda,4
0134  1D87  	BTFSS i2c_START_00000_1_l_scl,3
0135  2953  	GOTO	label24
0136  1E07  	BTFSS i2c_START_00000_1_l_sda,4
0137  2953  	GOTO	label24
0138  300A  	MOVLW 0x0A
0139  00F2  	MOVWF delay_us_00000_arg_del
013A  2010  	CALL delay_us_00000
013B  1987  	BTFSC i2c_START_00000_1_l_scl,3
013C  2941  	GOTO	label23
013D  15C6  	BSF i2c_START_00000_1_l_bclif,3
013E  15C2  	BSF i2c_START_00000_1_l_s,3
013F  1041  	BCF i2c_START_00000_1_l_sen,0
0140  0008  	RETURN
0141        label23
0141  1207  	BCF i2c_START_00000_1_l_sda,4
0142  1683  	BSF STATUS, RP0
0143  1207  	BCF i2c_START_00000_1_l_sda_tris,4
0144  300A  	MOVLW 0x0A
0145  1283  	BCF STATUS, RP0
0146  00F2  	MOVWF delay_us_00000_arg_del
0147  2010  	CALL delay_us_00000
0148  1187  	BCF i2c_START_00000_1_l_scl,3
0149  1683  	BSF STATUS, RP0
014A  1187  	BCF i2c_START_00000_1_l_scl_tris,3
014B  300A  	MOVLW 0x0A
014C  1283  	BCF STATUS, RP0
014D  00F2  	MOVWF delay_us_00000_arg_del
014E  2010  	CALL delay_us_00000
014F  15C2  	BSF i2c_START_00000_1_l_s,3
0150  1041  	BCF i2c_START_00000_1_l_sen,0
0151  15C5  	BSF i2c_START_00000_1_l_sspif,3
0152  0008  	RETURN
0153        label24
0153  15C6  	BSF i2c_START_00000_1_l_bclif,3
0154  15C2  	BSF i2c_START_00000_1_l_s,3
0155  1041  	BCF i2c_START_00000_1_l_sen,0
0156  10C1  	BCF i2c_START_00000_1_l_rsen,1
0157  1141  	BCF i2c_START_00000_1_l_pen,2
0158  11C1  	BCF i2c_START_00000_1_l_rcen,3
0159  1241  	BCF i2c_START_00000_1_l_acken,4
015A  0008  	RETURN
015B        ; } i2c_START function end

	ORG 0x0000015B
015B        tm1638Byte_0001F
015B        ; { tm1638ByteWrite ; function begin
015B  01F1  	CLRF tm1638Byte_0001F_2_i
015C        label25
015C  3008  	MOVLW 0x08
015D  0271  	SUBWF tm1638Byte_0001F_2_i, W
015E  1803  	BTFSC STATUS,C
015F  0008  	RETURN
0160  3001  	MOVLW 0x01
0161  0570  	ANDWF tm1638Byte_0001F_arg_bWrite, W
0162  00F2  	MOVWF CompTempVar555
0163  1872  	BTFSC CompTempVar555,0
0164  1486  	BSF gbl_portb,1
0165  1C72  	BTFSS CompTempVar555,0
0166  1086  	BCF gbl_portb,1
0167  1106  	BCF gbl_portb,2
0168  08F0  	MOVF tm1638Byte_0001F_arg_bWrite, F
0169  1003  	BCF STATUS,C
016A  0CF0  	RRF tm1638Byte_0001F_arg_bWrite, F
016B  1506  	BSF gbl_portb,2
016C  0AF1  	INCF tm1638Byte_0001F_2_i, F
016D  295C  	GOTO	label25
016E        ; } tm1638ByteWrite function end

	ORG 0x0000016E
016E        oneWireTxB_00018
016E        ; { oneWireTxByte ; function begin
016E  3001  	MOVLW 0x01
016F  00F0  	MOVWF oneWireTxB_00018_1_cTemp
0170  01F1  	CLRF oneWireTxB_00018_2_i
0171        label26
0171  3008  	MOVLW 0x08
0172  0271  	SUBWF oneWireTxB_00018_2_i, W
0173  1803  	BTFSC STATUS,C
0174  0008  	RETURN
0175  1683  	BSF STATUS, RP0
0176  1287  	BCF gbl_trisc,5
0177  1283  	BCF STATUS, RP0
0178  1287  	BCF gbl_portc,5
0179  0870  	MOVF oneWireTxB_00018_1_cTemp, W
017A  056F  	ANDWF oneWireTxB_00018_arg_cData, W
017B  1903  	BTFSC STATUS,Z
017C  297F  	GOTO	label27
017D  1683  	BSF STATUS, RP0
017E  1687  	BSF gbl_trisc,5
017F        label27
017F  3005  	MOVLW 0x05
0180  1283  	BCF STATUS, RP0
0181  00F2  	MOVWF delay_10us_00000_arg_del
0182  2077  	CALL delay_10us_00000
0183  1683  	BSF STATUS, RP0
0184  1687  	BSF gbl_trisc,5
0185  1003  	BCF STATUS,C
0186  1283  	BCF STATUS, RP0
0187  0DF0  	RLF oneWireTxB_00018_1_cTemp, F
0188  0AF1  	INCF oneWireTxB_00018_2_i, F
0189  2971  	GOTO	label26
018A        ; } oneWireTxByte function end

	ORG 0x0000018A
018A        i2c_READ_00000
018A        ; { i2c_READ ; function begin
018A  11C6  	BCF i2c_READ_00000_1_l_bclif,3
018B  11C5  	BCF i2c_READ_00000_1_l_sspif,3
018C  13C0  	BCF i2c_READ_00000_1_l_wcol,7
018D  15C1  	BSF i2c_READ_00000_1_l_rcen,3
018E  186F  	BTFSC i2c_READ_00000_arg_ack_status,0
018F  16C1  	BSF i2c_READ_00000_1_l_ackdt,5
0190  1C6F  	BTFSS i2c_READ_00000_arg_ack_status,0
0191  12C1  	BCF i2c_READ_00000_1_l_ackdt,5
0192  1542  	BSF i2c_READ_00000_1_l_rw,2
0193  1187  	BCF i2c_READ_00000_1_l_scl,3
0194  1207  	BCF i2c_READ_00000_1_l_sda,4
0195  1683  	BSF STATUS, RP0
0196  1607  	BSF i2c_READ_00000_1_l_sda_tris,4
0197  300A  	MOVLW 0x0A
0198  1283  	BCF STATUS, RP0
0199  00F2  	MOVWF delay_us_00000_arg_del
019A  2010  	CALL delay_us_00000
019B  01F1  	CLRF i2c_READ_00000_1_i2c_data
019C  3080  	MOVLW 0x80
019D  00F0  	MOVWF i2c_READ_00000_1_BitMask
019E        label28
019E  08F0  	MOVF i2c_READ_00000_1_BitMask, F
019F  1903  	BTFSC STATUS,Z
01A0  29BB  	GOTO	label32
01A1  1683  	BSF STATUS, RP0
01A2  1587  	BSF i2c_READ_00000_1_l_scl_tris,3
01A3        label29
01A3  1283  	BCF STATUS, RP0
01A4  1987  	BTFSC i2c_READ_00000_1_l_scl,3
01A5  29A8  	GOTO	label30
01A6  0064  	CLRWDT
01A7  29A3  	GOTO	label29
01A8        label30
01A8  300A  	MOVLW 0x0A
01A9  00F2  	MOVWF delay_us_00000_arg_del
01AA  2010  	CALL delay_us_00000
01AB  1683  	BSF STATUS, RP0
01AC  1607  	BSF i2c_READ_00000_1_l_sda_tris,4
01AD  1283  	BCF STATUS, RP0
01AE  1E07  	BTFSS i2c_READ_00000_1_l_sda,4
01AF  29B2  	GOTO	label31
01B0  0870  	MOVF i2c_READ_00000_1_BitMask, W
01B1  04F1  	IORWF i2c_READ_00000_1_i2c_data, F
01B2        label31
01B2  1683  	BSF STATUS, RP0
01B3  1187  	BCF i2c_READ_00000_1_l_scl_tris,3
01B4  300A  	MOVLW 0x0A
01B5  1283  	BCF STATUS, RP0
01B6  00F2  	MOVWF delay_us_00000_arg_del
01B7  2010  	CALL delay_us_00000
01B8  1003  	BCF STATUS,C
01B9  0CF0  	RRF i2c_READ_00000_1_BitMask, F
01BA  299E  	GOTO	label28
01BB        label32
01BB  15C5  	BSF i2c_READ_00000_1_l_sspif,3
01BC  11C1  	BCF i2c_READ_00000_1_l_rcen,3
01BD  08EF  	MOVF i2c_READ_00000_arg_ack_status, F
01BE  1903  	BTFSC STATUS,Z
01BF  29C3  	GOTO	label33
01C0  1683  	BSF STATUS, RP0
01C1  1607  	BSF i2c_READ_00000_1_l_sda_tris,4
01C2  29C5  	GOTO	label34
01C3        label33
01C3  1683  	BSF STATUS, RP0
01C4  1207  	BCF i2c_READ_00000_1_l_sda_tris,4
01C5        label34
01C5  300A  	MOVLW 0x0A
01C6  1283  	BCF STATUS, RP0
01C7  00F2  	MOVWF delay_us_00000_arg_del
01C8  2010  	CALL delay_us_00000
01C9  1683  	BSF STATUS, RP0
01CA  1587  	BSF i2c_READ_00000_1_l_scl_tris,3
01CB        label35
01CB  1283  	BCF STATUS, RP0
01CC  1987  	BTFSC i2c_READ_00000_1_l_scl,3
01CD  29D0  	GOTO	label36
01CE  0064  	CLRWDT
01CF  29CB  	GOTO	label35
01D0        label36
01D0  11C5  	BCF i2c_READ_00000_1_l_sspif,3
01D1  300A  	MOVLW 0x0A
01D2  00F2  	MOVWF delay_us_00000_arg_del
01D3  2010  	CALL delay_us_00000
01D4  1683  	BSF STATUS, RP0
01D5  1187  	BCF i2c_READ_00000_1_l_scl_tris,3
01D6  1283  	BCF STATUS, RP0
01D7  15C5  	BSF i2c_READ_00000_1_l_sspif,3
01D8  300A  	MOVLW 0x0A
01D9  00F2  	MOVWF delay_us_00000_arg_del
01DA  2010  	CALL delay_us_00000
01DB  0871  	MOVF i2c_READ_00000_1_i2c_data, W
01DC  00F2  	MOVWF CompTempVarRet553
01DD  0008  	RETURN
01DE        ; } i2c_READ function end

	ORG 0x000001DE
01DE        ds3231Writ_0001B
01DE        ; { ds3231Write ; function begin
01DE  2126  	CALL i2c_START_00000
01DF  30D0  	MOVLW 0xD0
01E0  00EF  	MOVWF i2c_WRITE_00000_arg_i2c_data
01E1  20A5  	CALL i2c_WRITE_00000
01E2  086D  	MOVF ds3231Writ_0001B_arg_ds3231Reg, W
01E3  00EF  	MOVWF i2c_WRITE_00000_arg_i2c_data
01E4  20A5  	CALL i2c_WRITE_00000
01E5  086E  	MOVF ds3231Writ_0001B_arg_bWrite, W
01E6  00EF  	MOVWF i2c_WRITE_00000_arg_i2c_data
01E7  20A5  	CALL i2c_WRITE_00000
01E8  20F6  	CALL i2c_STOP_00000
01E9  0008  	RETURN
01EA        ; } ds3231Write function end

	ORG 0x000001EA
01EA        bcdTo7Seg_00000
01EA        ; { bcdTo7Seg ; function begin
01EA  0E71  	SWAPF bcdTo7Seg_00000_arg_iBcdIn, W
01EB  390F  	ANDLW 0x0F
01EC  00F2  	MOVWF nibbleTo7S_00020_arg_bNibble
01ED  208D  	CALL nibbleTo7S_00020
01EE  0871  	MOVF bcdTo7Seg_00000_arg_iBcdIn, W
01EF  00F2  	MOVWF nibbleTo7S_00020_arg_bNibble
01F0  208D  	CALL nibbleTo7S_00020
01F1  0008  	RETURN
01F2        ; } bcdTo7Seg function end

	ORG 0x000001F2
01F2        bcdAdjust_00000
01F2        ; { bcdAdjust ; function begin
01F2  0369  	DECF gbl_iBcdAdjustment, W
01F3  1D03  	BTFSS STATUS,Z
01F4  2A08  	GOTO	label39
01F5  086F  	MOVF bcdAdjust_00000_arg_bcdMax, W
01F6  066E  	XORWF bcdAdjust_00000_arg_bcd, W
01F7  1D03  	BTFSS STATUS,Z
01F8  29FC  	GOTO	label37
01F9  0870  	MOVF bcdAdjust_00000_arg_bcdMin, W
01FA  00EE  	MOVWF bcdAdjust_00000_arg_bcd
01FB  2A19  	GOTO	label42
01FC        label37
01FC  300F  	MOVLW 0x0F
01FD  056E  	ANDWF bcdAdjust_00000_arg_bcd, W
01FE  00F1  	MOVWF CompTempVar599
01FF  0871  	MOVF CompTempVar599, W
0200  3A09  	XORLW 0x09
0201  1D03  	BTFSS STATUS,Z
0202  2A06  	GOTO	label38
0203  3007  	MOVLW 0x07
0204  07EE  	ADDWF bcdAdjust_00000_arg_bcd, F
0205  2A19  	GOTO	label42
0206        label38
0206  0AEE  	INCF bcdAdjust_00000_arg_bcd, F
0207  2A19  	GOTO	label42
0208        label39
0208  0870  	MOVF bcdAdjust_00000_arg_bcdMin, W
0209  066E  	XORWF bcdAdjust_00000_arg_bcd, W
020A  1D03  	BTFSS STATUS,Z
020B  2A0F  	GOTO	label40
020C  086F  	MOVF bcdAdjust_00000_arg_bcdMax, W
020D  00EE  	MOVWF bcdAdjust_00000_arg_bcd
020E  2A19  	GOTO	label42
020F        label40
020F  300F  	MOVLW 0x0F
0210  056E  	ANDWF bcdAdjust_00000_arg_bcd, W
0211  00F1  	MOVWF CompTempVar600
0212  08F1  	MOVF CompTempVar600, F
0213  1D03  	BTFSS STATUS,Z
0214  2A18  	GOTO	label41
0215  3007  	MOVLW 0x07
0216  02EE  	SUBWF bcdAdjust_00000_arg_bcd, F
0217  2A19  	GOTO	label42
0218        label41
0218  03EE  	DECF bcdAdjust_00000_arg_bcd, F
0219        label42
0219  086E  	MOVF bcdAdjust_00000_arg_bcd, W
021A  00F1  	MOVWF CompTempVarRet598
021B  0008  	RETURN
021C        ; } bcdAdjust function end

	ORG 0x0000021C
021C        tm1638Upda_00022
021C        ; { tm1638UpdateDisplay ; function begin
021C  1283  	BCF STATUS, RP0
021D  1303  	BCF STATUS, RP1
021E  084F  	MOVF gbl_gcSetMode, W
021F  044E  	IORWF gbl_gcDisplayMode, W
0220  00ED  	MOVWF CompTempVar558
0221  0850  	MOVF gbl_gcTriggerMode, W
0222  046D  	IORWF CompTempVar558, W
0223  1903  	BTFSC STATUS,Z
0224  2B2F  	GOTO	label64
0225  034F  	DECF gbl_gcSetMode, W
0226  1D03  	BTFSS STATUS,Z
0227  2A36  	GOTO	label43
0228  3003  	MOVLW 0x03
0229  00C8  	MOVWF gbl_iDigitToFlash
022A  01E7  	CLRF gbl_iPrintStartDigit
022B  3001  	MOVLW 0x01
022C  00E8  	MOVWF gbl_iPrintDotDigit
022D  3020  	MOVLW 0x20
022E  00F1  	MOVWF bcdTo7Seg_00000_arg_iBcdIn
022F  21EA  	CALL bcdTo7Seg_00000
0230  3003  	MOVLW 0x03
0231  00E8  	MOVWF gbl_iPrintDotDigit
0232  083B  	MOVF gbl_gBcdYear, W
0233  00F1  	MOVWF bcdTo7Seg_00000_arg_iBcdIn
0234  21EA  	CALL bcdTo7Seg_00000
0235  2B43  	GOTO	label65
0236        label43
0236  084F  	MOVF gbl_gcSetMode, W
0237  3A04  	XORLW 0x04
0238  1D03  	BTFSS STATUS,Z
0239  2A4C  	GOTO	label44
023A  3003  	MOVLW 0x03
023B  00C8  	MOVWF gbl_iDigitToFlash
023C  305E  	MOVLW 0x5E
023D  00A0  	MOVWF gbl_tm1638Data
023E  305F  	MOVLW 0x5F
023F  00A1  	MOVWF gbl_tm1638Data+D'1'
0240  306E  	MOVLW 0x6E
0241  00A2  	MOVWF gbl_tm1638Data+D'2'
0242  085E  	MOVF gbl_tm1638DisplayNumtoSeg, W
0243  00F4  	MOVWF __rom_get_00000_arg_objNumb
0244  0838  	MOVF gbl_gDayOfWeek, W
0245  00F5  	MOVWF __rom_get_00000_arg_idx
0246  201A  	CALL __rom_get_00000
0247  075F  	ADDWF gbl_tm1638Dot, W
0248  00A3  	MOVWF gbl_tm1638Data+D'3'
0249  118A  	BCF PCLATH,3
024A  120A  	BCF PCLATH,4
024B  2B43  	GOTO	label65
024C        label44
024C  08D0  	MOVF gbl_gcTriggerMode, F
024D  1903  	BTFSC STATUS,Z
024E  2B07  	GOTO	label57
024F  3005  	MOVLW 0x05
0250  00E8  	MOVWF gbl_iPrintDotDigit
0251  0850  	MOVF gbl_gcTriggerMode, W
0252  3A01  	XORLW 0x01
0253  1903  	BTFSC STATUS,Z
0254  2A77  	GOTO	label45
0255  3A03  	XORLW 0x03
0256  1903  	BTFSC STATUS,Z
0257  2A89  	GOTO	label46
0258  3A01  	XORLW 0x01
0259  1903  	BTFSC STATUS,Z
025A  2A91  	GOTO	label47
025B  3A07  	XORLW 0x07
025C  1903  	BTFSC STATUS,Z
025D  2A9E  	GOTO	label48
025E  3A01  	XORLW 0x01
025F  1903  	BTFSC STATUS,Z
0260  2AA6  	GOTO	label49
0261  3A03  	XORLW 0x03
0262  1903  	BTFSC STATUS,Z
0263  2AB5  	GOTO	label50
0264  3A01  	XORLW 0x01
0265  1903  	BTFSC STATUS,Z
0266  2ABD  	GOTO	label51
0267  3A0F  	XORLW 0x0F
0268  1903  	BTFSC STATUS,Z
0269  2ACA  	GOTO	label52
026A  3A01  	XORLW 0x01
026B  1903  	BTFSC STATUS,Z
026C  2AD0  	GOTO	label53
026D  3A03  	XORLW 0x03
026E  1903  	BTFSC STATUS,Z
026F  2AE3  	GOTO	label54
0270  3A01  	XORLW 0x01
0271  1903  	BTFSC STATUS,Z
0272  2AEB  	GOTO	label55
0273  3A07  	XORLW 0x07
0274  1903  	BTFSC STATUS,Z
0275  2AFF  	GOTO	label56
0276  2B43  	GOTO	label65
0277        label45
0277  3038  	MOVLW 0x38
0278  00A0  	MOVWF gbl_tm1638Data
0279  01A1  	CLRF gbl_tm1638Data+D'1'
027A  303F  	MOVLW 0x3F
027B  00A2  	MOVWF gbl_tm1638Data+D'2'
027C  3054  	MOVLW 0x54
027D  00A3  	MOVWF gbl_tm1638Data+D'3'
027E  3005  	MOVLW 0x05
027F  00C8  	MOVWF gbl_iDigitToFlash
0280  3004  	MOVLW 0x04
0281  00E7  	MOVWF gbl_iPrintStartDigit
0282  0852  	MOVF gbl_gBcdWhiteOnHour, W
0283  00F1  	MOVWF bcdTo7Seg_00000_arg_iBcdIn
0284  21EA  	CALL bcdTo7Seg_00000
0285  0851  	MOVF gbl_gBcdWhiteOnMinute, W
0286  00F1  	MOVWF bcdTo7Seg_00000_arg_iBcdIn
0287  21EA  	CALL bcdTo7Seg_00000
0288  2B43  	GOTO	label65
0289        label46
0289  3007  	MOVLW 0x07
028A  00C8  	MOVWF gbl_iDigitToFlash
028B  3006  	MOVLW 0x06
028C  00E7  	MOVWF gbl_iPrintStartDigit
028D  0851  	MOVF gbl_gBcdWhiteOnMinute, W
028E  00F1  	MOVWF bcdTo7Seg_00000_arg_iBcdIn
028F  21EA  	CALL bcdTo7Seg_00000
0290  2B43  	GOTO	label65
0291        label47
0291  3071  	MOVLW 0x71
0292  00A3  	MOVWF gbl_tm1638Data+D'3'
0293  3005  	MOVLW 0x05
0294  00C8  	MOVWF gbl_iDigitToFlash
0295  3004  	MOVLW 0x04
0296  00E7  	MOVWF gbl_iPrintStartDigit
0297  0854  	MOVF gbl_gBcdWhiteOffHour, W
0298  00F1  	MOVWF bcdTo7Seg_00000_arg_iBcdIn
0299  21EA  	CALL bcdTo7Seg_00000
029A  0853  	MOVF gbl_gBcdWhiteOffMinute, W
029B  00F1  	MOVWF bcdTo7Seg_00000_arg_iBcdIn
029C  21EA  	CALL bcdTo7Seg_00000
029D  2B43  	GOTO	label65
029E        label48
029E  3007  	MOVLW 0x07
029F  00C8  	MOVWF gbl_iDigitToFlash
02A0  3006  	MOVLW 0x06
02A1  00E7  	MOVWF gbl_iPrintStartDigit
02A2  0853  	MOVF gbl_gBcdWhiteOffMinute, W
02A3  00F1  	MOVWF bcdTo7Seg_00000_arg_iBcdIn
02A4  21EA  	CALL bcdTo7Seg_00000
02A5  2B43  	GOTO	label65
02A6        label49
02A6  307C  	MOVLW 0x7C
02A7  00A0  	MOVWF gbl_tm1638Data
02A8  3054  	MOVLW 0x54
02A9  00A3  	MOVWF gbl_tm1638Data+D'3'
02AA  3005  	MOVLW 0x05
02AB  00C8  	MOVWF gbl_iDigitToFlash
02AC  3004  	MOVLW 0x04
02AD  00E7  	MOVWF gbl_iPrintStartDigit
02AE  0856  	MOVF gbl_gBcdBlueOnHour, W
02AF  00F1  	MOVWF bcdTo7Seg_00000_arg_iBcdIn
02B0  21EA  	CALL bcdTo7Seg_00000
02B1  0855  	MOVF gbl_gBcdBlueOnMinute, W
02B2  00F1  	MOVWF bcdTo7Seg_00000_arg_iBcdIn
02B3  21EA  	CALL bcdTo7Seg_00000
02B4  2B43  	GOTO	label65
02B5        label50
02B5  3007  	MOVLW 0x07
02B6  00C8  	MOVWF gbl_iDigitToFlash
02B7  3006  	MOVLW 0x06
02B8  00E7  	MOVWF gbl_iPrintStartDigit
02B9  0855  	MOVF gbl_gBcdBlueOnMinute, W
02BA  00F1  	MOVWF bcdTo7Seg_00000_arg_iBcdIn
02BB  21EA  	CALL bcdTo7Seg_00000
02BC  2B43  	GOTO	label65
02BD        label51
02BD  3071  	MOVLW 0x71
02BE  00A3  	MOVWF gbl_tm1638Data+D'3'
02BF  3005  	MOVLW 0x05
02C0  00C8  	MOVWF gbl_iDigitToFlash
02C1  3004  	MOVLW 0x04
02C2  00E7  	MOVWF gbl_iPrintStartDigit
02C3  0858  	MOVF gbl_gBcdBlueOffHour, W
02C4  00F1  	MOVWF bcdTo7Seg_00000_arg_iBcdIn
02C5  21EA  	CALL bcdTo7Seg_00000
02C6  0857  	MOVF gbl_gBcdBlueOffMinute, W
02C7  00F1  	MOVWF bcdTo7Seg_00000_arg_iBcdIn
02C8  21EA  	CALL bcdTo7Seg_00000
02C9  2B43  	GOTO	label65
02CA        label52
02CA  3007  	MOVLW 0x07
02CB  00C8  	MOVWF gbl_iDigitToFlash
02CC  0857  	MOVF gbl_gBcdBlueOffMinute, W
02CD  00F1  	MOVWF bcdTo7Seg_00000_arg_iBcdIn
02CE  21EA  	CALL bcdTo7Seg_00000
02CF  2B43  	GOTO	label65
02D0        label53
02D0  3038  	MOVLW 0x38
02D1  00A0  	MOVWF gbl_tm1638Data
02D2  3030  	MOVLW 0x30
02D3  00A1  	MOVWF gbl_tm1638Data+D'1'
02D4  3054  	MOVLW 0x54
02D5  00A2  	MOVWF gbl_tm1638Data+D'2'
02D6  01A3  	CLRF gbl_tm1638Data+D'3'
02D7  303F  	MOVLW 0x3F
02D8  00A4  	MOVWF gbl_tm1638Data+D'4'
02D9  3054  	MOVLW 0x54
02DA  00A5  	MOVWF gbl_tm1638Data+D'5'
02DB  3007  	MOVLW 0x07
02DC  00C8  	MOVWF gbl_iDigitToFlash
02DD  3006  	MOVLW 0x06
02DE  00E7  	MOVWF gbl_iPrintStartDigit
02DF  0859  	MOVF gbl_gBcdFanOnTemp, W
02E0  00F1  	MOVWF bcdTo7Seg_00000_arg_iBcdIn
02E1  21EA  	CALL bcdTo7Seg_00000
02E2  2B43  	GOTO	label65
02E3        label54
02E3  3071  	MOVLW 0x71
02E4  00A5  	MOVWF gbl_tm1638Data+D'5'
02E5  3006  	MOVLW 0x06
02E6  00E7  	MOVWF gbl_iPrintStartDigit
02E7  085A  	MOVF gbl_gBcdFanOffTemp, W
02E8  00F1  	MOVWF bcdTo7Seg_00000_arg_iBcdIn
02E9  21EA  	CALL bcdTo7Seg_00000
02EA  2B43  	GOTO	label65
02EB        label55
02EB  3076  	MOVLW 0x76
02EC  00A0  	MOVWF gbl_tm1638Data
02ED  307B  	MOVLW 0x7B
02EE  00A1  	MOVWF gbl_tm1638Data+D'1'
02EF  3030  	MOVLW 0x30
02F0  00A2  	MOVWF gbl_tm1638Data+D'2'
02F1  3078  	MOVLW 0x78
02F2  00A3  	MOVWF gbl_tm1638Data+D'3'
02F3  303F  	MOVLW 0x3F
02F4  00A4  	MOVWF gbl_tm1638Data+D'4'
02F5  3054  	MOVLW 0x54
02F6  00A5  	MOVWF gbl_tm1638Data+D'5'
02F7  3007  	MOVLW 0x07
02F8  00C8  	MOVWF gbl_iDigitToFlash
02F9  3006  	MOVLW 0x06
02FA  00E7  	MOVWF gbl_iPrintStartDigit
02FB  085B  	MOVF gbl_gBcdHeaterOnTemp, W
02FC  00F1  	MOVWF bcdTo7Seg_00000_arg_iBcdIn
02FD  21EA  	CALL bcdTo7Seg_00000
02FE  2B43  	GOTO	label65
02FF        label56
02FF  3071  	MOVLW 0x71
0300  00A5  	MOVWF gbl_tm1638Data+D'5'
0301  3006  	MOVLW 0x06
0302  00E7  	MOVWF gbl_iPrintStartDigit
0303  085C  	MOVF gbl_gBcdHeaterOffTemp, W
0304  00F1  	MOVWF bcdTo7Seg_00000_arg_iBcdIn
0305  21EA  	CALL bcdTo7Seg_00000
0306  2B43  	GOTO	label65
0307        label57
0307  084F  	MOVF gbl_gcSetMode, W
0308  3A02  	XORLW 0x02
0309  1903  	BTFSC STATUS,Z
030A  2B15  	GOTO	label58
030B  3A01  	XORLW 0x01
030C  1903  	BTFSC STATUS,Z
030D  2B18  	GOTO	label59
030E  3A06  	XORLW 0x06
030F  1903  	BTFSC STATUS,Z
0310  2B1B  	GOTO	label60
0311  3A03  	XORLW 0x03
0312  1903  	BTFSC STATUS,Z
0313  2B1E  	GOTO	label61
0314  2B21  	GOTO	label62
0315        label58
0315  3003  	MOVLW 0x03
0316  00C8  	MOVWF gbl_iDigitToFlash
0317  2B23  	GOTO	label63
0318        label59
0318  3001  	MOVLW 0x01
0319  00C8  	MOVWF gbl_iDigitToFlash
031A  2B23  	GOTO	label63
031B        label60
031B  3005  	MOVLW 0x05
031C  00C8  	MOVWF gbl_iDigitToFlash
031D  2B23  	GOTO	label63
031E        label61
031E  3007  	MOVLW 0x07
031F  00C8  	MOVWF gbl_iDigitToFlash
0320  2B23  	GOTO	label63
0321        label62
0321  3008  	MOVLW 0x08
0322  00C8  	MOVWF gbl_iDigitToFlash
0323        label63
0323  01E7  	CLRF gbl_iPrintStartDigit
0324  3001  	MOVLW 0x01
0325  00E8  	MOVWF gbl_iPrintDotDigit
0326  0839  	MOVF gbl_gBcdDayOfMonth, W
0327  00F1  	MOVWF bcdTo7Seg_00000_arg_iBcdIn
0328  21EA  	CALL bcdTo7Seg_00000
0329  3003  	MOVLW 0x03
032A  00E8  	MOVWF gbl_iPrintDotDigit
032B  083A  	MOVF gbl_gBcdMonth, W
032C  00F1  	MOVWF bcdTo7Seg_00000_arg_iBcdIn
032D  21EA  	CALL bcdTo7Seg_00000
032E  2B43  	GOTO	label65
032F        label64
032F  3001  	MOVLW 0x01
0330  00E8  	MOVWF gbl_iPrintDotDigit
0331  01E7  	CLRF gbl_iPrintStartDigit
0332  0834  	MOVF gbl_giDS3231ValueBCD+D'1', W
0333  00F1  	MOVWF bcdTo7Seg_00000_arg_iBcdIn
0334  21EA  	CALL bcdTo7Seg_00000
0335  3003  	MOVLW 0x03
0336  00E8  	MOVWF gbl_iPrintDotDigit
0337  0833  	MOVF gbl_giDS3231ValueBCD, W
0338  00F1  	MOVWF bcdTo7Seg_00000_arg_iBcdIn
0339  21EA  	CALL bcdTo7Seg_00000
033A  0820  	MOVF gbl_tm1638Data, W
033B  3A3F  	XORLW 0x3F
033C  1903  	BTFSC STATUS,Z
033D  01A0  	CLRF gbl_tm1638Data
033E  08CB  	MOVF gbl_gbDS3231IsMinus, F
033F  1903  	BTFSC STATUS,Z
0340  2B43  	GOTO	label65
0341  3040  	MOVLW 0x40
0342  00A0  	MOVWF gbl_tm1638Data
0343        label65
0343  08D0  	MOVF gbl_gcTriggerMode, F
0344  1D03  	BTFSS STATUS,Z
0345  2B55  	GOTO	label68
0346  3004  	MOVLW 0x04
0347  00E7  	MOVWF gbl_iPrintStartDigit
0348  1C35  	BTFSS gbl_gBcdSecond,0
0349  2B4D  	GOTO	label66
034A  3005  	MOVLW 0x05
034B  00E8  	MOVWF gbl_iPrintDotDigit
034C  2B4F  	GOTO	label67
034D        label66
034D  3008  	MOVLW 0x08
034E  00E8  	MOVWF gbl_iPrintDotDigit
034F        label67
034F  0837  	MOVF gbl_gBcdHour, W
0350  00F1  	MOVWF bcdTo7Seg_00000_arg_iBcdIn
0351  21EA  	CALL bcdTo7Seg_00000
0352  0836  	MOVF gbl_gBcdMinute, W
0353  00F1  	MOVWF bcdTo7Seg_00000_arg_iBcdIn
0354  21EA  	CALL bcdTo7Seg_00000
0355        label68
0355  0A4F  	INCF gbl_gcSetMode, W
0356  00EE  	MOVWF tm1638Upda_00022_1_cCompar_00023
0357  3002  	MOVLW 0x02
0358  00F0  	MOVWF tm1638Upda_00022_3_i
0359        label69
0359  3008  	MOVLW 0x08
035A  0270  	SUBWF tm1638Upda_00022_3_i, W
035B  1803  	BTFSC STATUS,C
035C  2B72  	GOTO	label72
035D  086E  	MOVF tm1638Upda_00022_1_cCompar_00023, W
035E  0670  	XORWF tm1638Upda_00022_3_i, W
035F  1D03  	BTFSS STATUS,Z
0360  2B69  	GOTO	label70
0361  1383  	BCF	STATUS,IRP
0362  3028  	MOVLW LOW(gbl_tm1638LEDs+D'0')
0363  0084  	MOVWF FSR
0364  0870  	MOVF tm1638Upda_00022_3_i, W
0365  0784  	ADDWF FSR, F
0366  3001  	MOVLW 0x01
0367  0080  	MOVWF INDF
0368  2B70  	GOTO	label71
0369        label70
0369  1383  	BCF	STATUS,IRP
036A  3028  	MOVLW LOW(gbl_tm1638LEDs+D'0')
036B  0084  	MOVWF FSR
036C  0870  	MOVF tm1638Upda_00022_3_i, W
036D  0784  	ADDWF FSR, F
036E  3000  	MOVLW 0x00
036F  0080  	MOVWF INDF
0370        label71
0370  0AF0  	INCF tm1638Upda_00022_3_i, F
0371  2B59  	GOTO	label69
0372        label72
0372  01A8  	CLRF gbl_tm1638LEDs
0373  1805  	BTFSC gbl_porta,0
0374  0AA8  	INCF gbl_tm1638LEDs, F
0375  01A9  	CLRF gbl_tm1638LEDs+D'1'
0376  1885  	BTFSC gbl_porta,1
0377  0AA9  	INCF gbl_tm1638LEDs+D'1', F
0378  1186  	BCF gbl_portb,3
0379  0861  	MOVF gbl_tm1638ByteSetData, W
037A  00F0  	MOVWF tm1638Byte_0001F_arg_bWrite
037B  215B  	CALL tm1638Byte_0001F
037C  1586  	BSF gbl_portb,3
037D  1186  	BCF gbl_portb,3
037E  0863  	MOVF gbl_tm1638ByteSetAddr, W
037F  00F0  	MOVWF tm1638Byte_0001F_arg_bWrite
0380  215B  	CALL tm1638Byte_0001F
0381  01EF  	CLRF tm1638Upda_00022_2_i
0382        label73
0382  085D  	MOVF gbl_tm1638MaxDigits, W
0383  026F  	SUBWF tm1638Upda_00022_2_i, W
0384  1803  	BTFSC STATUS,C
0385  2BA1  	GOTO	label76
0386  1C3F  	BTFSS gbl_iFlashDigitOff,0
0387  2B8F  	GOTO	label74
0388  0848  	MOVF gbl_iDigitToFlash, W
0389  066F  	XORWF tm1638Upda_00022_2_i, W
038A  1D03  	BTFSS STATUS,Z
038B  2B8F  	GOTO	label74
038C  01F0  	CLRF tm1638Byte_0001F_arg_bWrite
038D  215B  	CALL tm1638Byte_0001F
038E  2B97  	GOTO	label75
038F        label74
038F  1383  	BCF	STATUS,IRP
0390  3020  	MOVLW LOW(gbl_tm1638Data+D'0')
0391  0084  	MOVWF FSR
0392  086F  	MOVF tm1638Upda_00022_2_i, W
0393  0784  	ADDWF FSR, F
0394  0800  	MOVF INDF, W
0395  00F0  	MOVWF tm1638Byte_0001F_arg_bWrite
0396  215B  	CALL tm1638Byte_0001F
0397        label75
0397  1383  	BCF	STATUS,IRP
0398  3028  	MOVLW LOW(gbl_tm1638LEDs+D'0')
0399  0084  	MOVWF FSR
039A  086F  	MOVF tm1638Upda_00022_2_i, W
039B  0784  	ADDWF FSR, F
039C  0800  	MOVF INDF, W
039D  00F0  	MOVWF tm1638Byte_0001F_arg_bWrite
039E  215B  	CALL tm1638Byte_0001F
039F  0AEF  	INCF tm1638Upda_00022_2_i, F
03A0  2B82  	GOTO	label73
03A1        label76
03A1  1586  	BSF gbl_portb,3
03A2  0008  	RETURN
03A3        ; } tm1638UpdateDisplay function end

	ORG 0x000003A3
03A3        tm1638Disp_00021
03A3        ; { tm1638DisplayOn ; function begin
03A3  1283  	BCF STATUS, RP0
03A4  1303  	BCF STATUS, RP1
03A5  1186  	BCF gbl_portb,3
03A6  3088  	MOVLW 0x88
03A7  00F0  	MOVWF tm1638Byte_0001F_arg_bWrite
03A8  215B  	CALL tm1638Byte_0001F
03A9  1586  	BSF gbl_portb,3
03AA  0008  	RETURN
03AB        ; } tm1638DisplayOn function end

	ORG 0x000003AB
03AB        oneWireTxB_00019
03AB        ; { oneWireTxBytes ; function begin
03AB  086D  	MOVF oneWireTxB_00019_arg_cData, W
03AC  00EF  	MOVWF oneWireTxB_00018_arg_cData
03AD  216E  	CALL oneWireTxB_00018
03AE  086E  	MOVF oneWireTxB_00019_arg_cData2, W
03AF  00EF  	MOVWF oneWireTxB_00018_arg_cData
03B0  216E  	CALL oneWireTxB_00018
03B1  0008  	RETURN
03B2        ; } oneWireTxBytes function end

	ORG 0x000003B2
03B2        oneWireRxB_0001A
03B2        ; { oneWireRxByte ; function begin
03B2  1283  	BCF STATUS, RP0
03B3  1303  	BCF STATUS, RP1
03B4  01ED  	CLRF oneWireRxB_0001A_1_cDataIn
03B5  01EE  	CLRF oneWireRxB_0001A_2_i
03B6        label77
03B6  3008  	MOVLW 0x08
03B7  026E  	SUBWF oneWireRxB_0001A_2_i, W
03B8  1803  	BTFSC STATUS,C
03B9  2BCD  	GOTO	label78
03BA  1683  	BSF STATUS, RP0
03BB  1287  	BCF gbl_trisc,5
03BC  1283  	BCF STATUS, RP0
03BD  1287  	BCF gbl_portc,5
03BE  1683  	BSF STATUS, RP0
03BF  1687  	BSF gbl_trisc,5
03C0  3003  	MOVLW 0x03
03C1  1283  	BCF STATUS, RP0
03C2  00F2  	MOVWF delay_us_00000_arg_del
03C3  2010  	CALL delay_us_00000
03C4  1003  	BCF STATUS,C
03C5  0CED  	RRF oneWireRxB_0001A_1_cDataIn, F
03C6  1A87  	BTFSC gbl_portc,5
03C7  17ED  	BSF oneWireRxB_0001A_1_cDataIn,7
03C8  3006  	MOVLW 0x06
03C9  00F2  	MOVWF delay_10us_00000_arg_del
03CA  2077  	CALL delay_10us_00000
03CB  0AEE  	INCF oneWireRxB_0001A_2_i, F
03CC  2BB6  	GOTO	label77
03CD        label78
03CD  086D  	MOVF oneWireRxB_0001A_1_cDataIn, W
03CE  00EE  	MOVWF CompTempVarRet551
03CF  0008  	RETURN
03D0        ; } oneWireRxByte function end

	ORG 0x000003D0
03D0        i2c_INIT_00000
03D0        ; { i2c_INIT ; function begin
03D0  1683  	BSF STATUS, RP0
03D1  1607  	BSF i2c_INIT_00000_1_l_sda_tris,4
03D2  1587  	BSF i2c_INIT_00000_1_l_scl_tris,3
03D3  1283  	BCF STATUS, RP0
03D4  01C0  	CLRF i2c_INIT_00000_1_i2c_SSPCON1
03D5  086D  	MOVF i2c_INIT_00000_arg_i2c_divisor, W
03D6  00C3  	MOVWF i2c_INIT_00000_1_i2c_SSPADD
03D7  3008  	MOVLW 0x08
03D8  00C0  	MOVWF i2c_INIT_00000_1_i2c_SSPCON1
03D9  01C1  	CLRF i2c_INIT_00000_1_i2c_SSPCON2
03DA  01C2  	CLRF i2c_INIT_00000_1_i2c_SSPSTAT
03DB  17C2  	BSF i2c_INIT_00000_1_l_smp,7
03DC  11C5  	BCF i2c_INIT_00000_1_l_sspif,3
03DD  11C6  	BCF i2c_INIT_00000_1_l_bclif,3
03DE  1207  	BCF i2c_INIT_00000_1_l_sda,4
03DF  1187  	BCF i2c_INIT_00000_1_l_scl,3
03E0  16C0  	BSF i2c_INIT_00000_1_l_sspen,5
03E1  20F6  	CALL i2c_STOP_00000
03E2  0008  	RETURN
03E3        ; } i2c_INIT function end

	ORG 0x000003E3
03E3        ds3231Writ_0001C
03E3        ; { ds3231WriteDateTime ; function begin
03E3  2126  	CALL i2c_START_00000
03E4  30D0  	MOVLW 0xD0
03E5  00EF  	MOVWF i2c_WRITE_00000_arg_i2c_data
03E6  20A5  	CALL i2c_WRITE_00000
03E7  01EF  	CLRF i2c_WRITE_00000_arg_i2c_data
03E8  20A5  	CALL i2c_WRITE_00000
03E9  01EF  	CLRF i2c_WRITE_00000_arg_i2c_data
03EA  20A5  	CALL i2c_WRITE_00000
03EB  0836  	MOVF gbl_gBcdMinute, W
03EC  00EF  	MOVWF i2c_WRITE_00000_arg_i2c_data
03ED  20A5  	CALL i2c_WRITE_00000
03EE  0837  	MOVF gbl_gBcdHour, W
03EF  00EF  	MOVWF i2c_WRITE_00000_arg_i2c_data
03F0  20A5  	CALL i2c_WRITE_00000
03F1  0838  	MOVF gbl_gDayOfWeek, W
03F2  00EF  	MOVWF i2c_WRITE_00000_arg_i2c_data
03F3  20A5  	CALL i2c_WRITE_00000
03F4  0839  	MOVF gbl_gBcdDayOfMonth, W
03F5  00EF  	MOVWF i2c_WRITE_00000_arg_i2c_data
03F6  20A5  	CALL i2c_WRITE_00000
03F7  083A  	MOVF gbl_gBcdMonth, W
03F8  00EF  	MOVWF i2c_WRITE_00000_arg_i2c_data
03F9  20A5  	CALL i2c_WRITE_00000
03FA  083B  	MOVF gbl_gBcdYear, W
03FB  00EF  	MOVWF i2c_WRITE_00000_arg_i2c_data
03FC  20A5  	CALL i2c_WRITE_00000
03FD  20F6  	CALL i2c_STOP_00000
03FE  0008  	RETURN
03FF        ; } ds3231WriteDateTime function end

	ORG 0x000003FF
03FF        ds3231Read_0001E
03FF        ; { ds3231ReadRegister ; function begin
03FF  2126  	CALL i2c_START_00000
0400  30D0  	MOVLW 0xD0
0401  00EF  	MOVWF i2c_WRITE_00000_arg_i2c_data
0402  20A5  	CALL i2c_WRITE_00000
0403  086D  	MOVF ds3231Read_0001E_arg_cRegAddress, W
0404  00EF  	MOVWF i2c_WRITE_00000_arg_i2c_data
0405  20A5  	CALL i2c_WRITE_00000
0406  20F6  	CALL i2c_STOP_00000
0407  2126  	CALL i2c_START_00000
0408  30D1  	MOVLW 0xD1
0409  00EF  	MOVWF i2c_WRITE_00000_arg_i2c_data
040A  20A5  	CALL i2c_WRITE_00000
040B  3001  	MOVLW 0x01
040C  00EF  	MOVWF i2c_READ_00000_arg_ack_status
040D  218A  	CALL i2c_READ_00000
040E  0872  	MOVF CompTempVarRet553, W
040F  00EE  	MOVWF ds3231Read_0001E_1_cStatus
0410  20F6  	CALL i2c_STOP_00000
0411  086E  	MOVF ds3231Read_0001E_1_cStatus, W
0412  00EF  	MOVWF CompTempVarRet554
0413  0008  	RETURN
0414        ; } ds3231ReadRegister function end

	ORG 0x00000414
0414        ds3231Init_00000
0414        ; { ds3231Init ; function begin
0414  300E  	MOVLW 0x0E
0415  1283  	BCF STATUS, RP0
0416  1303  	BCF STATUS, RP1
0417  00ED  	MOVWF ds3231Writ_0001B_arg_ds3231Reg
0418  01EE  	CLRF ds3231Writ_0001B_arg_bWrite
0419  21DE  	CALL ds3231Writ_0001B
041A  300F  	MOVLW 0x0F
041B  00ED  	MOVWF ds3231Writ_0001B_arg_ds3231Reg
041C  01EE  	CLRF ds3231Writ_0001B_arg_bWrite
041D  21DE  	CALL ds3231Writ_0001B
041E  0008  	RETURN
041F        ; } ds3231Init function end

	ORG 0x0000041F
041F        at24c32Wri_00029
041F        ; { at24c32WriteAll ; function begin
041F  2126  	CALL i2c_START_00000
0420  30AE  	MOVLW 0xAE
0421  00EF  	MOVWF i2c_WRITE_00000_arg_i2c_data
0422  20A5  	CALL i2c_WRITE_00000
0423  01EF  	CLRF i2c_WRITE_00000_arg_i2c_data
0424  20A5  	CALL i2c_WRITE_00000
0425  01EF  	CLRF i2c_WRITE_00000_arg_i2c_data
0426  20A5  	CALL i2c_WRITE_00000
0427  3044  	MOVLW 0x44
0428  00EF  	MOVWF i2c_WRITE_00000_arg_i2c_data
0429  20A5  	CALL i2c_WRITE_00000
042A  0851  	MOVF gbl_gBcdWhiteOnMinute, W
042B  00EF  	MOVWF i2c_WRITE_00000_arg_i2c_data
042C  20A5  	CALL i2c_WRITE_00000
042D  0852  	MOVF gbl_gBcdWhiteOnHour, W
042E  00EF  	MOVWF i2c_WRITE_00000_arg_i2c_data
042F  20A5  	CALL i2c_WRITE_00000
0430  0853  	MOVF gbl_gBcdWhiteOffMinute, W
0431  00EF  	MOVWF i2c_WRITE_00000_arg_i2c_data
0432  20A5  	CALL i2c_WRITE_00000
0433  0854  	MOVF gbl_gBcdWhiteOffHour, W
0434  00EF  	MOVWF i2c_WRITE_00000_arg_i2c_data
0435  20A5  	CALL i2c_WRITE_00000
0436  0855  	MOVF gbl_gBcdBlueOnMinute, W
0437  00EF  	MOVWF i2c_WRITE_00000_arg_i2c_data
0438  20A5  	CALL i2c_WRITE_00000
0439  0856  	MOVF gbl_gBcdBlueOnHour, W
043A  00EF  	MOVWF i2c_WRITE_00000_arg_i2c_data
043B  20A5  	CALL i2c_WRITE_00000
043C  0857  	MOVF gbl_gBcdBlueOffMinute, W
043D  00EF  	MOVWF i2c_WRITE_00000_arg_i2c_data
043E  20A5  	CALL i2c_WRITE_00000
043F  0858  	MOVF gbl_gBcdBlueOffHour, W
0440  00EF  	MOVWF i2c_WRITE_00000_arg_i2c_data
0441  20A5  	CALL i2c_WRITE_00000
0442  0859  	MOVF gbl_gBcdFanOnTemp, W
0443  00EF  	MOVWF i2c_WRITE_00000_arg_i2c_data
0444  20A5  	CALL i2c_WRITE_00000
0445  085A  	MOVF gbl_gBcdFanOffTemp, W
0446  00EF  	MOVWF i2c_WRITE_00000_arg_i2c_data
0447  20A5  	CALL i2c_WRITE_00000
0448  085B  	MOVF gbl_gBcdHeaterOnTemp, W
0449  00EF  	MOVWF i2c_WRITE_00000_arg_i2c_data
044A  20A5  	CALL i2c_WRITE_00000
044B  085C  	MOVF gbl_gBcdHeaterOffTemp, W
044C  00EF  	MOVWF i2c_WRITE_00000_arg_i2c_data
044D  20A5  	CALL i2c_WRITE_00000
044E  20F6  	CALL i2c_STOP_00000
044F  300A  	MOVLW 0x0A
0450  00EC  	MOVWF delay_ms_00000_arg_del
0451  2081  	CALL delay_ms_00000
0452  0008  	RETURN
0453        ; } at24c32WriteAll function end

	ORG 0x00000453
0453        at24c32Rea_0002A
0453        ; { at24c32ReadAll ; function begin
0453  2126  	CALL i2c_START_00000
0454  30AE  	MOVLW 0xAE
0455  00EF  	MOVWF i2c_WRITE_00000_arg_i2c_data
0456  20A5  	CALL i2c_WRITE_00000
0457  01EF  	CLRF i2c_WRITE_00000_arg_i2c_data
0458  20A5  	CALL i2c_WRITE_00000
0459  01EF  	CLRF i2c_WRITE_00000_arg_i2c_data
045A  20A5  	CALL i2c_WRITE_00000
045B  20F6  	CALL i2c_STOP_00000
045C  2126  	CALL i2c_START_00000
045D  30AF  	MOVLW 0xAF
045E  00EF  	MOVWF i2c_WRITE_00000_arg_i2c_data
045F  20A5  	CALL i2c_WRITE_00000
0460  01EF  	CLRF i2c_READ_00000_arg_ack_status
0461  218A  	CALL i2c_READ_00000
0462  0872  	MOVF CompTempVarRet553, W
0463  00ED  	MOVWF at24c32Rea_0002A_1_hasWritten
0464  086D  	MOVF at24c32Rea_0002A_1_hasWritten, W
0465  3A44  	XORLW 0x44
0466  1903  	BTFSC STATUS,Z
0467  2C6C  	GOTO	label79
0468  3001  	MOVLW 0x01
0469  00EF  	MOVWF i2c_READ_00000_arg_ack_status
046A  218A  	CALL i2c_READ_00000
046B  2C9D  	GOTO	label80
046C        label79
046C  01EF  	CLRF i2c_READ_00000_arg_ack_status
046D  218A  	CALL i2c_READ_00000
046E  0872  	MOVF CompTempVarRet553, W
046F  00D1  	MOVWF gbl_gBcdWhiteOnMinute
0470  01EF  	CLRF i2c_READ_00000_arg_ack_status
0471  218A  	CALL i2c_READ_00000
0472  0872  	MOVF CompTempVarRet553, W
0473  00D2  	MOVWF gbl_gBcdWhiteOnHour
0474  01EF  	CLRF i2c_READ_00000_arg_ack_status
0475  218A  	CALL i2c_READ_00000
0476  0872  	MOVF CompTempVarRet553, W
0477  00D3  	MOVWF gbl_gBcdWhiteOffMinute
0478  01EF  	CLRF i2c_READ_00000_arg_ack_status
0479  218A  	CALL i2c_READ_00000
047A  0872  	MOVF CompTempVarRet553, W
047B  00D4  	MOVWF gbl_gBcdWhiteOffHour
047C  01EF  	CLRF i2c_READ_00000_arg_ack_status
047D  218A  	CALL i2c_READ_00000
047E  0872  	MOVF CompTempVarRet553, W
047F  00D5  	MOVWF gbl_gBcdBlueOnMinute
0480  01EF  	CLRF i2c_READ_00000_arg_ack_status
0481  218A  	CALL i2c_READ_00000
0482  0872  	MOVF CompTempVarRet553, W
0483  00D6  	MOVWF gbl_gBcdBlueOnHour
0484  01EF  	CLRF i2c_READ_00000_arg_ack_status
0485  218A  	CALL i2c_READ_00000
0486  0872  	MOVF CompTempVarRet553, W
0487  00D7  	MOVWF gbl_gBcdBlueOffMinute
0488  01EF  	CLRF i2c_READ_00000_arg_ack_status
0489  218A  	CALL i2c_READ_00000
048A  0872  	MOVF CompTempVarRet553, W
048B  00D8  	MOVWF gbl_gBcdBlueOffHour
048C  01EF  	CLRF i2c_READ_00000_arg_ack_status
048D  218A  	CALL i2c_READ_00000
048E  0872  	MOVF CompTempVarRet553, W
048F  00D9  	MOVWF gbl_gBcdFanOnTemp
0490  01EF  	CLRF i2c_READ_00000_arg_ack_status
0491  218A  	CALL i2c_READ_00000
0492  0872  	MOVF CompTempVarRet553, W
0493  00DA  	MOVWF gbl_gBcdFanOffTemp
0494  01EF  	CLRF i2c_READ_00000_arg_ack_status
0495  218A  	CALL i2c_READ_00000
0496  0872  	MOVF CompTempVarRet553, W
0497  00DB  	MOVWF gbl_gBcdHeaterOnTemp
0498  3001  	MOVLW 0x01
0499  00EF  	MOVWF i2c_READ_00000_arg_ack_status
049A  218A  	CALL i2c_READ_00000
049B  0872  	MOVF CompTempVarRet553, W
049C  00DC  	MOVWF gbl_gBcdHeaterOffTemp
049D        label80
049D  20F6  	CALL i2c_STOP_00000
049E  0008  	RETURN
049F        ; } at24c32ReadAll function end

	ORG 0x0000049F
049F        adjustTrig_00027
049F        ; { adjustTrigger ; function begin
049F  1283  	BCF STATUS, RP0
04A0  1303  	BCF STATUS, RP1
04A1  0850  	MOVF gbl_gcTriggerMode, W
04A2  3A01  	XORLW 0x01
04A3  1903  	BTFSC STATUS,Z
04A4  2CC7  	GOTO	label81
04A5  3A03  	XORLW 0x03
04A6  1903  	BTFSC STATUS,Z
04A7  2CD0  	GOTO	label82
04A8  3A01  	XORLW 0x01
04A9  1903  	BTFSC STATUS,Z
04AA  2CD9  	GOTO	label83
04AB  3A07  	XORLW 0x07
04AC  1903  	BTFSC STATUS,Z
04AD  2CE2  	GOTO	label84
04AE  3A01  	XORLW 0x01
04AF  1903  	BTFSC STATUS,Z
04B0  2CEB  	GOTO	label85
04B1  3A03  	XORLW 0x03
04B2  1903  	BTFSC STATUS,Z
04B3  2CF4  	GOTO	label86
04B4  3A01  	XORLW 0x01
04B5  1903  	BTFSC STATUS,Z
04B6  2CFD  	GOTO	label87
04B7  3A0F  	XORLW 0x0F
04B8  1903  	BTFSC STATUS,Z
04B9  2D06  	GOTO	label88
04BA  3A01  	XORLW 0x01
04BB  1903  	BTFSC STATUS,Z
04BC  2D0F  	GOTO	label89
04BD  3A03  	XORLW 0x03
04BE  1903  	BTFSC STATUS,Z
04BF  2D19  	GOTO	label90
04C0  3A01  	XORLW 0x01
04C1  1903  	BTFSC STATUS,Z
04C2  2D23  	GOTO	label91
04C3  3A07  	XORLW 0x07
04C4  1903  	BTFSC STATUS,Z
04C5  2D2D  	GOTO	label92
04C6  0008  	RETURN
04C7        label81
04C7  0852  	MOVF gbl_gBcdWhiteOnHour, W
04C8  00EE  	MOVWF bcdAdjust_00000_arg_bcd
04C9  3023  	MOVLW 0x23
04CA  00EF  	MOVWF bcdAdjust_00000_arg_bcdMax
04CB  01F0  	CLRF bcdAdjust_00000_arg_bcdMin
04CC  21F2  	CALL bcdAdjust_00000
04CD  0871  	MOVF CompTempVarRet598, W
04CE  00D2  	MOVWF gbl_gBcdWhiteOnHour
04CF  0008  	RETURN
04D0        label82
04D0  0851  	MOVF gbl_gBcdWhiteOnMinute, W
04D1  00EE  	MOVWF bcdAdjust_00000_arg_bcd
04D2  3059  	MOVLW 0x59
04D3  00EF  	MOVWF bcdAdjust_00000_arg_bcdMax
04D4  01F0  	CLRF bcdAdjust_00000_arg_bcdMin
04D5  21F2  	CALL bcdAdjust_00000
04D6  0871  	MOVF CompTempVarRet598, W
04D7  00D1  	MOVWF gbl_gBcdWhiteOnMinute
04D8  0008  	RETURN
04D9        label83
04D9  0854  	MOVF gbl_gBcdWhiteOffHour, W
04DA  00EE  	MOVWF bcdAdjust_00000_arg_bcd
04DB  3023  	MOVLW 0x23
04DC  00EF  	MOVWF bcdAdjust_00000_arg_bcdMax
04DD  01F0  	CLRF bcdAdjust_00000_arg_bcdMin
04DE  21F2  	CALL bcdAdjust_00000
04DF  0871  	MOVF CompTempVarRet598, W
04E0  00D4  	MOVWF gbl_gBcdWhiteOffHour
04E1  0008  	RETURN
04E2        label84
04E2  0853  	MOVF gbl_gBcdWhiteOffMinute, W
04E3  00EE  	MOVWF bcdAdjust_00000_arg_bcd
04E4  3059  	MOVLW 0x59
04E5  00EF  	MOVWF bcdAdjust_00000_arg_bcdMax
04E6  01F0  	CLRF bcdAdjust_00000_arg_bcdMin
04E7  21F2  	CALL bcdAdjust_00000
04E8  0871  	MOVF CompTempVarRet598, W
04E9  00D3  	MOVWF gbl_gBcdWhiteOffMinute
04EA  0008  	RETURN
04EB        label85
04EB  0856  	MOVF gbl_gBcdBlueOnHour, W
04EC  00EE  	MOVWF bcdAdjust_00000_arg_bcd
04ED  3023  	MOVLW 0x23
04EE  00EF  	MOVWF bcdAdjust_00000_arg_bcdMax
04EF  01F0  	CLRF bcdAdjust_00000_arg_bcdMin
04F0  21F2  	CALL bcdAdjust_00000
04F1  0871  	MOVF CompTempVarRet598, W
04F2  00D6  	MOVWF gbl_gBcdBlueOnHour
04F3  0008  	RETURN
04F4        label86
04F4  0855  	MOVF gbl_gBcdBlueOnMinute, W
04F5  00EE  	MOVWF bcdAdjust_00000_arg_bcd
04F6  3059  	MOVLW 0x59
04F7  00EF  	MOVWF bcdAdjust_00000_arg_bcdMax
04F8  01F0  	CLRF bcdAdjust_00000_arg_bcdMin
04F9  21F2  	CALL bcdAdjust_00000
04FA  0871  	MOVF CompTempVarRet598, W
04FB  00D5  	MOVWF gbl_gBcdBlueOnMinute
04FC  0008  	RETURN
04FD        label87
04FD  0858  	MOVF gbl_gBcdBlueOffHour, W
04FE  00EE  	MOVWF bcdAdjust_00000_arg_bcd
04FF  3023  	MOVLW 0x23
0500  00EF  	MOVWF bcdAdjust_00000_arg_bcdMax
0501  01F0  	CLRF bcdAdjust_00000_arg_bcdMin
0502  21F2  	CALL bcdAdjust_00000
0503  0871  	MOVF CompTempVarRet598, W
0504  00D8  	MOVWF gbl_gBcdBlueOffHour
0505  0008  	RETURN
0506        label88
0506  0857  	MOVF gbl_gBcdBlueOffMinute, W
0507  00EE  	MOVWF bcdAdjust_00000_arg_bcd
0508  3059  	MOVLW 0x59
0509  00EF  	MOVWF bcdAdjust_00000_arg_bcdMax
050A  01F0  	CLRF bcdAdjust_00000_arg_bcdMin
050B  21F2  	CALL bcdAdjust_00000
050C  0871  	MOVF CompTempVarRet598, W
050D  00D7  	MOVWF gbl_gBcdBlueOffMinute
050E  0008  	RETURN
050F        label89
050F  0859  	MOVF gbl_gBcdFanOnTemp, W
0510  00EE  	MOVWF bcdAdjust_00000_arg_bcd
0511  3040  	MOVLW 0x40
0512  00EF  	MOVWF bcdAdjust_00000_arg_bcdMax
0513  3020  	MOVLW 0x20
0514  00F0  	MOVWF bcdAdjust_00000_arg_bcdMin
0515  21F2  	CALL bcdAdjust_00000
0516  0871  	MOVF CompTempVarRet598, W
0517  00D9  	MOVWF gbl_gBcdFanOnTemp
0518  0008  	RETURN
0519        label90
0519  085A  	MOVF gbl_gBcdFanOffTemp, W
051A  00EE  	MOVWF bcdAdjust_00000_arg_bcd
051B  085A  	MOVF gbl_gBcdFanOffTemp, W
051C  00EF  	MOVWF bcdAdjust_00000_arg_bcdMax
051D  3020  	MOVLW 0x20
051E  00F0  	MOVWF bcdAdjust_00000_arg_bcdMin
051F  21F2  	CALL bcdAdjust_00000
0520  0871  	MOVF CompTempVarRet598, W
0521  00DA  	MOVWF gbl_gBcdFanOffTemp
0522  0008  	RETURN
0523        label91
0523  085B  	MOVF gbl_gBcdHeaterOnTemp, W
0524  00EE  	MOVWF bcdAdjust_00000_arg_bcd
0525  3040  	MOVLW 0x40
0526  00EF  	MOVWF bcdAdjust_00000_arg_bcdMax
0527  3020  	MOVLW 0x20
0528  00F0  	MOVWF bcdAdjust_00000_arg_bcdMin
0529  21F2  	CALL bcdAdjust_00000
052A  0871  	MOVF CompTempVarRet598, W
052B  00DB  	MOVWF gbl_gBcdHeaterOnTemp
052C  0008  	RETURN
052D        label92
052D  085C  	MOVF gbl_gBcdHeaterOffTemp, W
052E  00EE  	MOVWF bcdAdjust_00000_arg_bcd
052F  3040  	MOVLW 0x40
0530  00EF  	MOVWF bcdAdjust_00000_arg_bcdMax
0531  085B  	MOVF gbl_gBcdHeaterOnTemp, W
0532  00F0  	MOVWF bcdAdjust_00000_arg_bcdMin
0533  21F2  	CALL bcdAdjust_00000
0534  0871  	MOVF CompTempVarRet598, W
0535  00DC  	MOVWF gbl_gBcdHeaterOffTemp
0536  0008  	RETURN
0537        ; } adjustTrigger function end

	ORG 0x00000537
0537        adjustDate_00026
0537        ; { adjustDateTime ; function begin
0537  1283  	BCF STATUS, RP0
0538  1303  	BCF STATUS, RP1
0539  084F  	MOVF gbl_gcSetMode, W
053A  3A01  	XORLW 0x01
053B  1903  	BTFSC STATUS,Z
053C  2D4D  	GOTO	label93
053D  3A03  	XORLW 0x03
053E  1903  	BTFSC STATUS,Z
053F  2D56  	GOTO	label94
0540  3A01  	XORLW 0x01
0541  1903  	BTFSC STATUS,Z
0542  2D60  	GOTO	label95
0543  3A07  	XORLW 0x07
0544  1903  	BTFSC STATUS,Z
0545  2D97  	GOTO	label100
0546  3A01  	XORLW 0x01
0547  1903  	BTFSC STATUS,Z
0548  2DA0  	GOTO	label101
0549  3A03  	XORLW 0x03
054A  1903  	BTFSC STATUS,Z
054B  2DA8  	GOTO	label102
054C  0008  	RETURN
054D        label93
054D  083B  	MOVF gbl_gBcdYear, W
054E  00EE  	MOVWF bcdAdjust_00000_arg_bcd
054F  3099  	MOVLW 0x99
0550  00EF  	MOVWF bcdAdjust_00000_arg_bcdMax
0551  01F0  	CLRF bcdAdjust_00000_arg_bcdMin
0552  21F2  	CALL bcdAdjust_00000
0553  0871  	MOVF CompTempVarRet598, W
0554  00BB  	MOVWF gbl_gBcdYear
0555  0008  	RETURN
0556        label94
0556  083A  	MOVF gbl_gBcdMonth, W
0557  00EE  	MOVWF bcdAdjust_00000_arg_bcd
0558  3012  	MOVLW 0x12
0559  00EF  	MOVWF bcdAdjust_00000_arg_bcdMax
055A  3001  	MOVLW 0x01
055B  00F0  	MOVWF bcdAdjust_00000_arg_bcdMin
055C  21F2  	CALL bcdAdjust_00000
055D  0871  	MOVF CompTempVarRet598, W
055E  00BA  	MOVWF gbl_gBcdMonth
055F  0008  	RETURN
0560        label95
0560  083A  	MOVF gbl_gBcdMonth, W
0561  00EC  	MOVWF adjustDate_00026_1_iMonth
0562  30F0  	MOVLW 0xF0
0563  056C  	ANDWF adjustDate_00026_1_iMonth, W
0564  1903  	BTFSC STATUS,Z
0565  2D6B  	GOTO	label96
0566  0E3A  	SWAPF gbl_gBcdMonth, W
0567  390F  	ANDLW 0x0F
0568  00EE  	MOVWF CompTempVar601
0569  086E  	MOVF CompTempVar601, W
056A  07EC  	ADDWF adjustDate_00026_1_iMonth, F
056B        label96
056B  03EC  	DECF adjustDate_00026_1_iMonth, F
056C  083C  	MOVF gbl_gDaysInMonth, W
056D  00F4  	MOVWF __rom_get_00000_arg_objNumb
056E  086C  	MOVF adjustDate_00026_1_iMonth, W
056F  00F5  	MOVWF __rom_get_00000_arg_idx
0570  201A  	CALL __rom_get_00000
0571  00ED  	MOVWF adjustDate_00026_1_bcdMaxDay
0572  036C  	DECF adjustDate_00026_1_iMonth, W
0573  118A  	BCF PCLATH,3
0574  120A  	BCF PCLATH,4
0575  1D03  	BTFSS STATUS,Z
0576  2D8D  	GOTO	label99
0577  01EE  	CLRF adjustDate_00026_16_i
0578        label97
0578  3018  	MOVLW 0x18
0579  026E  	SUBWF adjustDate_00026_16_i, W
057A  1803  	BTFSC STATUS,C
057B  2D8D  	GOTO	label99
057C  083D  	MOVF gbl_gLeapYears, W
057D  00F4  	MOVWF __rom_get_00000_arg_objNumb
057E  086E  	MOVF adjustDate_00026_16_i, W
057F  00F5  	MOVWF __rom_get_00000_arg_idx
0580  201A  	CALL __rom_get_00000
0581  00EF  	MOVWF CompTempVar602
0582  083B  	MOVF gbl_gBcdYear, W
0583  066F  	XORWF CompTempVar602, W
0584  118A  	BCF PCLATH,3
0585  120A  	BCF PCLATH,4
0586  1D03  	BTFSS STATUS,Z
0587  2D8B  	GOTO	label98
0588  3029  	MOVLW 0x29
0589  00ED  	MOVWF adjustDate_00026_1_bcdMaxDay
058A  2D8D  	GOTO	label99
058B        label98
058B  0AEE  	INCF adjustDate_00026_16_i, F
058C  2D78  	GOTO	label97
058D        label99
058D  0839  	MOVF gbl_gBcdDayOfMonth, W
058E  00EE  	MOVWF bcdAdjust_00000_arg_bcd
058F  086D  	MOVF adjustDate_00026_1_bcdMaxDay, W
0590  00EF  	MOVWF bcdAdjust_00000_arg_bcdMax
0591  3001  	MOVLW 0x01
0592  00F0  	MOVWF bcdAdjust_00000_arg_bcdMin
0593  21F2  	CALL bcdAdjust_00000
0594  0871  	MOVF CompTempVarRet598, W
0595  00B9  	MOVWF gbl_gBcdDayOfMonth
0596  0008  	RETURN
0597        label100
0597  0838  	MOVF gbl_gDayOfWeek, W
0598  00EE  	MOVWF bcdAdjust_00000_arg_bcd
0599  3007  	MOVLW 0x07
059A  00EF  	MOVWF bcdAdjust_00000_arg_bcdMax
059B  3001  	MOVLW 0x01
059C  00F0  	MOVWF bcdAdjust_00000_arg_bcdMin
059D  21F2  	CALL bcdAdjust_00000
059E  0871  	MOVF CompTempVarRet598, W
059F  00B8  	MOVWF gbl_gDayOfWeek
05A0        label101
05A0  0837  	MOVF gbl_gBcdHour, W
05A1  00EE  	MOVWF bcdAdjust_00000_arg_bcd
05A2  3023  	MOVLW 0x23
05A3  00EF  	MOVWF bcdAdjust_00000_arg_bcdMax
05A4  01F0  	CLRF bcdAdjust_00000_arg_bcdMin
05A5  21F2  	CALL bcdAdjust_00000
05A6  0871  	MOVF CompTempVarRet598, W
05A7  00B7  	MOVWF gbl_gBcdHour
05A8        label102
05A8  0836  	MOVF gbl_gBcdMinute, W
05A9  00EE  	MOVWF bcdAdjust_00000_arg_bcd
05AA  3059  	MOVLW 0x59
05AB  00EF  	MOVWF bcdAdjust_00000_arg_bcdMax
05AC  01F0  	CLRF bcdAdjust_00000_arg_bcdMin
05AD  21F2  	CALL bcdAdjust_00000
05AE  0871  	MOVF CompTempVarRet598, W
05AF  00B6  	MOVWF gbl_gBcdMinute
05B0  0008  	RETURN
05B1        ; } adjustDateTime function end

	ORG 0x000005B1
05B1        __mul_16s__0000F
05B1        ; { __mul_16s_16s__16 ; function begin
05B1  01F7  	CLRF __mul_16s__0000F_1_i
05B2  01FA  	CLRF CompTempVarRet389
05B3  01FB  	CLRF CompTempVarRet389+D'1'
05B4  0873  	MOVF __mul_16s__0000F_arg_a, W
05B5  00F8  	MOVWF __mul_16s__0000F_1_t
05B6  0874  	MOVF __mul_16s__0000F_arg_a+D'1', W
05B7  00F9  	MOVWF __mul_16s__0000F_1_t+D'1'
05B8  1FF6  	BTFSS __mul_16s__0000F_arg_b+D'1',7
05B9  2DC0  	GOTO	label103
05BA  17F7  	BSF __mul_16s__0000F_1_i,7
05BB  09F5  	COMF __mul_16s__0000F_arg_b, F
05BC  09F6  	COMF __mul_16s__0000F_arg_b+D'1', F
05BD  0AF5  	INCF __mul_16s__0000F_arg_b, F
05BE  1903  	BTFSC gbl_status,2
05BF  0AF6  	INCF __mul_16s__0000F_arg_b+D'1', F
05C0        label103
05C0  1A77  	BTFSC __mul_16s__0000F_1_i,4
05C1  2DD2  	GOTO	label105
05C2  1C75  	BTFSS __mul_16s__0000F_arg_b,0
05C3  2DCA  	GOTO	label104
05C4  0878  	MOVF __mul_16s__0000F_1_t, W
05C5  07FA  	ADDWF CompTempVarRet389, F
05C6  0879  	MOVF __mul_16s__0000F_1_t+D'1', W
05C7  1803  	BTFSC gbl_status,0
05C8  0F79  	INCFSZ __mul_16s__0000F_1_t+D'1', W
05C9  07FB  	ADDWF CompTempVarRet389+D'1', F
05CA        label104
05CA  1003  	BCF gbl_status,0
05CB  0CF6  	RRF __mul_16s__0000F_arg_b+D'1', F
05CC  0CF5  	RRF __mul_16s__0000F_arg_b, F
05CD  1003  	BCF gbl_status,0
05CE  0DF8  	RLF __mul_16s__0000F_1_t, F
05CF  0DF9  	RLF __mul_16s__0000F_1_t+D'1', F
05D0  0AF7  	INCF __mul_16s__0000F_1_i, F
05D1  2DC0  	GOTO	label103
05D2        label105
05D2  1FF7  	BTFSS __mul_16s__0000F_1_i,7
05D3  0008  	RETURN
05D4  09FA  	COMF CompTempVarRet389, F
05D5  09FB  	COMF CompTempVarRet389+D'1', F
05D6  0AFA  	INCF CompTempVarRet389, F
05D7  1903  	BTFSC gbl_status,2
05D8  0AFB  	INCF CompTempVarRet389+D'1', F
05D9  0008  	RETURN
05DA        ; } __mul_16s_16s__16 function end

	ORG 0x000005DA
05DA        tm1638Read_00024
05DA        ; { tm1638ReadKeys ; function begin
05DA  1283  	BCF STATUS, RP0
05DB  1303  	BCF STATUS, RP1
05DC  1186  	BCF gbl_portb,3
05DD  0862  	MOVF gbl_tm1638ByteReadData, W
05DE  00F0  	MOVWF tm1638Byte_0001F_arg_bWrite
05DF  215B  	CALL tm1638Byte_0001F
05E0  1683  	BSF STATUS, RP0
05E1  1486  	BSF gbl_trisb,1
05E2  3020  	MOVLW 0x20
05E3  1283  	BCF STATUS, RP0
05E4  00EC  	MOVWF tm1638Read_00024_1_tm1638K_00025
05E5  01ED  	CLRF tm1638Read_00024_2_i
05E6        label106
05E6  3020  	MOVLW 0x20
05E7  026D  	SUBWF tm1638Read_00024_2_i, W
05E8  1803  	BTFSC STATUS,C
05E9  2DF6  	GOTO	label108
05EA  03EC  	DECF tm1638Read_00024_1_tm1638K_00025, F
05EB  1106  	BCF gbl_portb,2
05EC  3001  	MOVLW 0x01
05ED  00F2  	MOVWF delay_us_00000_arg_del
05EE  2010  	CALL delay_us_00000
05EF  1C86  	BTFSS gbl_portb,1
05F0  2DF3  	GOTO	label107
05F1  1003  	BCF STATUS,C
05F2  0DEC  	RLF tm1638Read_00024_1_tm1638K_00025, F
05F3        label107
05F3  1506  	BSF gbl_portb,2
05F4  0AED  	INCF tm1638Read_00024_2_i, F
05F5  2DE6  	GOTO	label106
05F6        label108
05F6  1683  	BSF STATUS, RP0
05F7  1086  	BCF gbl_trisb,1
05F8  1283  	BCF STATUS, RP0
05F9  1586  	BSF gbl_portb,3
05FA  086C  	MOVF tm1638Read_00024_1_tm1638K_00025, W
05FB  00E5  	MOVWF gbl_tm1638Keys
05FC  0008  	RETURN
05FD        ; } tm1638ReadKeys function end

	ORG 0x000005FD
05FD        startTemp_00000
05FD        ; { startTemp ; function begin
05FD  30CC  	MOVLW 0xCC
05FE  1283  	BCF STATUS, RP0
05FF  1303  	BCF STATUS, RP1
0600  00ED  	MOVWF oneWireTxB_00019_arg_cData
0601  3044  	MOVLW 0x44
0602  00EE  	MOVWF oneWireTxB_00019_arg_cData2
0603  23AB  	CALL oneWireTxB_00019
0604  0008  	RETURN
0605        ; } startTemp function end

	ORG 0x00000605
0605        readTemp_00000
0605        ; { readTemp ; function begin
0605  30CC  	MOVLW 0xCC
0606  1283  	BCF STATUS, RP0
0607  1303  	BCF STATUS, RP1
0608  00ED  	MOVWF oneWireTxB_00019_arg_cData
0609  30BE  	MOVLW 0xBE
060A  00EE  	MOVWF oneWireTxB_00019_arg_cData2
060B  23AB  	CALL oneWireTxB_00019
060C  23B2  	CALL oneWireRxB_0001A
060D  086E  	MOVF CompTempVarRet551, W
060E  00CA  	MOVWF gbl_cTempL
060F  23B2  	CALL oneWireRxB_0001A
0610  086E  	MOVF CompTempVarRet551, W
0611  00C9  	MOVWF gbl_cTempH
0612  0008  	RETURN
0613        ; } readTemp function end

	ORG 0x00000613
0613        processKey_00028
0613        ; { processKeys ; function begin
0613  1283  	BCF STATUS, RP0
0614  1303  	BCF STATUS, RP1
0615  0865  	MOVF gbl_tm1638Keys, W
0616  3A1F  	XORLW 0x1F
0617  1903  	BTFSC STATUS,Z
0618  2E2F  	GOTO	label109
0619  3A08  	XORLW 0x08
061A  1903  	BTFSC STATUS,Z
061B  2E37  	GOTO	label110
061C  3A18  	XORLW 0x18
061D  1903  	BTFSC STATUS,Z
061E  2E3F  	GOTO	label111
061F  3A08  	XORLW 0x08
0620  1903  	BTFSC STATUS,Z
0621  2E47  	GOTO	label112
0622  3A1C  	XORLW 0x1C
0623  1903  	BTFSC STATUS,Z
0624  2E4F  	GOTO	label113
0625  3A08  	XORLW 0x08
0626  1903  	BTFSC STATUS,Z
0627  2E58  	GOTO	label114
0628  3A18  	XORLW 0x18
0629  1903  	BTFSC STATUS,Z
062A  2E62  	GOTO	label116
062B  3A08  	XORLW 0x08
062C  1903  	BTFSC STATUS,Z
062D  2E6D  	GOTO	label118
062E  0008  	RETURN
062F        label109
062F  01EC  	CLRF CompTempVar603
0630  1C87  	BTFSS gbl_portc,1
0631  0AEC  	INCF CompTempVar603, F
0632  186C  	BTFSC CompTempVar603,0
0633  1487  	BSF gbl_portc,1
0634  1C6C  	BTFSS CompTempVar603,0
0635  1087  	BCF gbl_portc,1
0636  0008  	RETURN
0637        label110
0637  01EC  	CLRF CompTempVar604
0638  1D07  	BTFSS gbl_portc,2
0639  0AEC  	INCF CompTempVar604, F
063A  186C  	BTFSC CompTempVar604,0
063B  1507  	BSF gbl_portc,2
063C  1C6C  	BTFSS CompTempVar604,0
063D  1107  	BCF gbl_portc,2
063E  0008  	RETURN
063F        label111
063F  01EC  	CLRF CompTempVar605
0640  1D4D  	BTFSS gbl_gbFanOn,2
0641  0AEC  	INCF CompTempVar605, F
0642  114D  	BCF gbl_gbFanOn,2
0643  086C  	MOVF CompTempVar605, W
0644  1D03  	BTFSS STATUS,Z
0645  154D  	BSF gbl_gbFanOn,2
0646  0008  	RETURN
0647        label112
0647  01CF  	CLRF gbl_gcSetMode
0648  01D0  	CLRF gbl_gcTriggerMode
0649  0ACE  	INCF gbl_gcDisplayMode, F
064A  084E  	MOVF gbl_gcDisplayMode, W
064B  3C02  	SUBLW 0x02
064C  1C03  	BTFSS STATUS,C
064D  01CE  	CLRF gbl_gcDisplayMode
064E  0008  	RETURN
064F        label113
064F  01D0  	CLRF gbl_gcTriggerMode
0650  0ACF  	INCF gbl_gcSetMode, F
0651  084F  	MOVF gbl_gcSetMode, W
0652  3C06  	SUBLW 0x06
0653  1803  	BTFSC STATUS,C
0654  0008  	RETURN
0655  23E3  	CALL ds3231Writ_0001C
0656  01CF  	CLRF gbl_gcSetMode
0657  0008  	RETURN
0658        label114
0658  01E9  	CLRF gbl_iBcdAdjustment
0659  08CF  	MOVF gbl_gcSetMode, F
065A  1903  	BTFSC STATUS,Z
065B  2E5E  	GOTO	label115
065C  2537  	CALL adjustDate_00026
065D  0008  	RETURN
065E        label115
065E  08D0  	MOVF gbl_gcTriggerMode, F
065F  1D03  	BTFSS STATUS,Z
0660  249F  	CALL adjustTrig_00027
0661  0008  	RETURN
0662        label116
0662  3001  	MOVLW 0x01
0663  00E9  	MOVWF gbl_iBcdAdjustment
0664  08CF  	MOVF gbl_gcSetMode, F
0665  1903  	BTFSC STATUS,Z
0666  2E69  	GOTO	label117
0667  2537  	CALL adjustDate_00026
0668  0008  	RETURN
0669        label117
0669  08D0  	MOVF gbl_gcTriggerMode, F
066A  1D03  	BTFSS STATUS,Z
066B  249F  	CALL adjustTrig_00027
066C  0008  	RETURN
066D        label118
066D  01CF  	CLRF gbl_gcSetMode
066E  0AD0  	INCF gbl_gcTriggerMode, F
066F  0850  	MOVF gbl_gcTriggerMode, W
0670  3C0C  	SUBLW 0x0C
0671  1803  	BTFSC STATUS,C
0672  0008  	RETURN
0673  01D0  	CLRF gbl_gcTriggerMode
0674  241F  	CALL at24c32Wri_00029
0675  0008  	RETURN
0676        ; } processKeys function end

	ORG 0x00000676
0676        oneWireBus_00017
0676        ; { oneWireBusReset ; function begin
0676  1683  	BSF STATUS, RP0
0677  1303  	BCF STATUS, RP1
0678  1687  	BSF gbl_trisc,5
0679  1283  	BCF STATUS, RP0
067A  01ED  	CLRF oneWireBus_00017_1_isPresent
067B  1287  	BCF gbl_portc,5
067C  1683  	BSF STATUS, RP0
067D  1287  	BCF gbl_trisc,5
067E  3032  	MOVLW 0x32
067F  1283  	BCF STATUS, RP0
0680  00F2  	MOVWF delay_10us_00000_arg_del
0681  2077  	CALL delay_10us_00000
0682  1683  	BSF STATUS, RP0
0683  1687  	BSF gbl_trisc,5
0684  3007  	MOVLW 0x07
0685  1283  	BCF STATUS, RP0
0686  00F2  	MOVWF delay_10us_00000_arg_del
0687  2077  	CALL delay_10us_00000
0688  1A87  	BTFSC gbl_portc,5
0689  01EA  	CLRF gbl_oneWireIsPresent
068A  3032  	MOVLW 0x32
068B  00F2  	MOVWF delay_10us_00000_arg_del
068C  2077  	CALL delay_10us_00000
068D  0008  	RETURN
068E        ; } oneWireBusReset function end

	ORG 0x0000068E
068E        initialise_00000
068E        ; { initialise ; function begin
068E  1683  	BSF STATUS, RP0
068F  1303  	BCF STATUS, RP1
0690  0185  	CLRF gbl_trisa
0691  1283  	BCF STATUS, RP0
0692  0185  	CLRF gbl_porta
0693  1683  	BSF STATUS, RP0
0694  0186  	CLRF gbl_trisb
0695  300E  	MOVLW 0x0E
0696  1283  	BCF STATUS, RP0
0697  0086  	MOVWF gbl_portb
0698  3021  	MOVLW 0x21
0699  1683  	BSF STATUS, RP0
069A  0087  	MOVWF gbl_trisc
069B  3038  	MOVLW 0x38
069C  1283  	BCF STATUS, RP0
069D  0087  	MOVWF gbl_portc
069E  1683  	BSF STATUS, RP0
069F  0181  	CLRF gbl_option_reg
06A0  1781  	BSF gbl_option_reg,7
06A1  3007  	MOVLW 0x07
06A2  009F  	MOVWF gbl_adcon1
06A3  1501  	BSF gbl_option_reg,2
06A4  1481  	BSF gbl_option_reg,1
06A5  1401  	BSF gbl_option_reg,0
06A6  303D  	MOVLW 0x3D
06A7  1283  	BCF STATUS, RP0
06A8  0081  	MOVWF gbl_tmr0
06A9  110B  	BCF gbl_intcon,2
06AA  168B  	BSF gbl_intcon,5
06AB  3007  	MOVLW 0x07
06AC  0090  	MOVWF gbl_t1con
06AD  30FF  	MOVLW 0xFF
06AE  008F  	MOVWF gbl_tmr1h
06AF  008E  	MOVWF gbl_tmr1l
06B0  1683  	BSF STATUS, RP0
06B1  140C  	BSF gbl_pie1,0
06B2  1283  	BCF STATUS, RP0
06B3  01CC  	CLRF gbl_cTask
06B4  178B  	BSF gbl_intcon,7
06B5  170B  	BSF gbl_intcon,6
06B6  3001  	MOVLW 0x01
06B7  00ED  	MOVWF i2c_INIT_00000_arg_i2c_divisor
06B8  23D0  	CALL i2c_INIT_00000
06B9  2453  	CALL at24c32Rea_0002A
06BA  300F  	MOVLW 0x0F
06BB  00ED  	MOVWF ds3231Read_0001E_arg_cRegAddress
06BC  23FF  	CALL ds3231Read_0001E
06BD  086F  	MOVF CompTempVarRet554, W
06BE  00EC  	MOVWF initialise_00000_1_cStatus
06BF  1FEC  	BTFSS initialise_00000_1_cStatus,7
06C0  2EC3  	GOTO	label119
06C1  2414  	CALL ds3231Init_00000
06C2  23E3  	CALL ds3231Writ_0001C
06C3        label119
06C3  23A3  	CALL tm1638Disp_00021
06C4  221C  	CALL tm1638Upda_00022
06C5  0008  	RETURN
06C6        ; } initialise function end

	ORG 0x000006C6
06C6        ds3231Read_0001D
06C6        ; { ds3231ReadDateTime ; function begin
06C6  2126  	CALL i2c_START_00000
06C7  30D0  	MOVLW 0xD0
06C8  00EF  	MOVWF i2c_WRITE_00000_arg_i2c_data
06C9  20A5  	CALL i2c_WRITE_00000
06CA  01EF  	CLRF i2c_WRITE_00000_arg_i2c_data
06CB  20A5  	CALL i2c_WRITE_00000
06CC  20F6  	CALL i2c_STOP_00000
06CD  2126  	CALL i2c_START_00000
06CE  30D1  	MOVLW 0xD1
06CF  00EF  	MOVWF i2c_WRITE_00000_arg_i2c_data
06D0  20A5  	CALL i2c_WRITE_00000
06D1  01EF  	CLRF i2c_READ_00000_arg_ack_status
06D2  218A  	CALL i2c_READ_00000
06D3  0872  	MOVF CompTempVarRet553, W
06D4  00B5  	MOVWF gbl_gBcdSecond
06D5  01EF  	CLRF i2c_READ_00000_arg_ack_status
06D6  218A  	CALL i2c_READ_00000
06D7  0872  	MOVF CompTempVarRet553, W
06D8  00B6  	MOVWF gbl_gBcdMinute
06D9  01EF  	CLRF i2c_READ_00000_arg_ack_status
06DA  218A  	CALL i2c_READ_00000
06DB  0872  	MOVF CompTempVarRet553, W
06DC  00B7  	MOVWF gbl_gBcdHour
06DD  01EF  	CLRF i2c_READ_00000_arg_ack_status
06DE  218A  	CALL i2c_READ_00000
06DF  0872  	MOVF CompTempVarRet553, W
06E0  00B8  	MOVWF gbl_gDayOfWeek
06E1  01EF  	CLRF i2c_READ_00000_arg_ack_status
06E2  218A  	CALL i2c_READ_00000
06E3  0872  	MOVF CompTempVarRet553, W
06E4  00B9  	MOVWF gbl_gBcdDayOfMonth
06E5  01EF  	CLRF i2c_READ_00000_arg_ack_status
06E6  218A  	CALL i2c_READ_00000
06E7  0872  	MOVF CompTempVarRet553, W
06E8  00BA  	MOVWF gbl_gBcdMonth
06E9  3001  	MOVLW 0x01
06EA  00EF  	MOVWF i2c_READ_00000_arg_ack_status
06EB  218A  	CALL i2c_READ_00000
06EC  0872  	MOVF CompTempVarRet553, W
06ED  00BB  	MOVWF gbl_gBcdYear
06EE  20F6  	CALL i2c_STOP_00000
06EF  0008  	RETURN
06F0        ; } ds3231ReadDateTime function end

	ORG 0x000006F0
06F0        convertTem_0002B
06F0        ; { convertTemp ; function begin
06F0  1283  	BCF STATUS, RP0
06F1  1303  	BCF STATUS, RP1
06F2  01ED  	CLRF convertTem_0002B_1_iTemp
06F3  0849  	MOVF gbl_cTempH, W
06F4  00EE  	MOVWF convertTem_0002B_1_iTemp+D'1'
06F5  084A  	MOVF gbl_cTempL, W
06F6  04ED  	IORWF convertTem_0002B_1_iTemp, F
06F7  01CB  	CLRF gbl_gbDS3231IsMinus
06F8  1BEE  	BTFSC convertTem_0002B_1_iTemp+D'1',7
06F9  0ACB  	INCF gbl_gbDS3231IsMinus, F
06FA  08CB  	MOVF gbl_gbDS3231IsMinus, F
06FB  1903  	BTFSC STATUS,Z
06FC  2F02  	GOTO	label120
06FD  09ED  	COMF convertTem_0002B_1_iTemp, F
06FE  09EE  	COMF convertTem_0002B_1_iTemp+D'1', F
06FF  0AED  	INCF convertTem_0002B_1_iTemp, F
0700  1903  	BTFSC STATUS,Z
0701  0AEE  	INCF convertTem_0002B_1_iTemp+D'1', F
0702        label120
0702  3006  	MOVLW 0x06
0703  00F3  	MOVWF __mul_16s__0000F_arg_a
0704  01F4  	CLRF __mul_16s__0000F_arg_a+D'1'
0705  086D  	MOVF convertTem_0002B_1_iTemp, W
0706  00F5  	MOVWF __mul_16s__0000F_arg_b
0707  086E  	MOVF convertTem_0002B_1_iTemp+D'1', W
0708  00F6  	MOVWF __mul_16s__0000F_arg_b+D'1'
0709  25B1  	CALL __mul_16s__0000F
070A  087A  	MOVF CompTempVarRet389, W
070B  00EF  	MOVWF convertTem_0002B_1_iValue
070C  087B  	MOVF CompTempVarRet389+D'1', W
070D  00F2  	MOVWF CompTempVar613
070E  086D  	MOVF convertTem_0002B_1_iTemp, W
070F  00F1  	MOVWF CompTempVar610
0710  086E  	MOVF convertTem_0002B_1_iTemp+D'1', W
0711  00F0  	MOVWF convertTem_0002B_1_iValue+D'1'
0712  0D6E  	RLF convertTem_0002B_1_iTemp+D'1', W
0713  0CF0  	RRF convertTem_0002B_1_iValue+D'1', F
0714  0CF1  	RRF CompTempVar610, F
0715  0D6E  	RLF convertTem_0002B_1_iTemp+D'1', W
0716  0CF0  	RRF convertTem_0002B_1_iValue+D'1', F
0717  0CF1  	RRF CompTempVar610, F
0718  0871  	MOVF CompTempVar610, W
0719  07EF  	ADDWF convertTem_0002B_1_iValue, F
071A  0872  	MOVF CompTempVar613, W
071B  1803  	BTFSC STATUS,C
071C  0AF0  	INCF convertTem_0002B_1_iValue+D'1', F
071D  07F0  	ADDWF convertTem_0002B_1_iValue+D'1', F
071E  01B3  	CLRF gbl_giDS3231ValueBCD
071F  01B4  	CLRF gbl_giDS3231ValueBCD+D'1'
0720        label121
0720  3003  	MOVLW 0x03
0721  0270  	SUBWF convertTem_0002B_1_iValue+D'1', W
0722  1D03  	BTFSS STATUS,Z
0723  2F26  	GOTO	label122
0724  30E8  	MOVLW 0xE8
0725  026F  	SUBWF convertTem_0002B_1_iValue, W
0726        label122
0726  1C03  	BTFSS STATUS,C
0727  2F38  	GOTO	label123
0728  1BF0  	BTFSC convertTem_0002B_1_iValue+D'1',7
0729  2F38  	GOTO	label123
072A  30E8  	MOVLW 0xE8
072B  02EF  	SUBWF convertTem_0002B_1_iValue, F
072C  3003  	MOVLW 0x03
072D  1C03  	BTFSS STATUS,C
072E  3004  	MOVLW 0x04
072F  02F0  	SUBWF convertTem_0002B_1_iValue+D'1', F
0730  3000  	MOVLW 0x00
0731  07B3  	ADDWF gbl_giDS3231ValueBCD, F
0732  08B4  	MOVF gbl_giDS3231ValueBCD+D'1', F
0733  3010  	MOVLW 0x10
0734  1803  	BTFSC STATUS,C
0735  0AB4  	INCF gbl_giDS3231ValueBCD+D'1', F
0736  07B4  	ADDWF gbl_giDS3231ValueBCD+D'1', F
0737  2F20  	GOTO	label121
0738        label123
0738  0870  	MOVF convertTem_0002B_1_iValue+D'1', W
0739  3A80  	XORLW 0x80
073A  00F3  	MOVWF CompTempVar625
073B  3080  	MOVLW 0x80
073C  0273  	SUBWF CompTempVar625, W
073D  1D03  	BTFSS STATUS,Z
073E  2F41  	GOTO	label124
073F  3064  	MOVLW 0x64
0740  026F  	SUBWF convertTem_0002B_1_iValue, W
0741        label124
0741  1C03  	BTFSS STATUS,C
0742  2F50  	GOTO	label125
0743  3064  	MOVLW 0x64
0744  02EF  	SUBWF convertTem_0002B_1_iValue, F
0745  08F0  	MOVF convertTem_0002B_1_iValue+D'1', F
0746  1C03  	BTFSS STATUS,C
0747  03F0  	DECF convertTem_0002B_1_iValue+D'1', F
0748  3000  	MOVLW 0x00
0749  07B3  	ADDWF gbl_giDS3231ValueBCD, F
074A  08B4  	MOVF gbl_giDS3231ValueBCD+D'1', F
074B  3001  	MOVLW 0x01
074C  1803  	BTFSC STATUS,C
074D  0AB4  	INCF gbl_giDS3231ValueBCD+D'1', F
074E  07B4  	ADDWF gbl_giDS3231ValueBCD+D'1', F
074F  2F38  	GOTO	label123
0750        label125
0750  0870  	MOVF convertTem_0002B_1_iValue+D'1', W
0751  3A80  	XORLW 0x80
0752  00F3  	MOVWF CompTempVar630
0753  3080  	MOVLW 0x80
0754  0273  	SUBWF CompTempVar630, W
0755  1D03  	BTFSS STATUS,Z
0756  2F59  	GOTO	label126
0757  300A  	MOVLW 0x0A
0758  026F  	SUBWF convertTem_0002B_1_iValue, W
0759        label126
0759  1C03  	BTFSS STATUS,C
075A  2F66  	GOTO	label127
075B  300A  	MOVLW 0x0A
075C  02EF  	SUBWF convertTem_0002B_1_iValue, F
075D  08F0  	MOVF convertTem_0002B_1_iValue+D'1', F
075E  1C03  	BTFSS STATUS,C
075F  03F0  	DECF convertTem_0002B_1_iValue+D'1', F
0760  3010  	MOVLW 0x10
0761  07B3  	ADDWF gbl_giDS3231ValueBCD, F
0762  08B4  	MOVF gbl_giDS3231ValueBCD+D'1', F
0763  1803  	BTFSC STATUS,C
0764  0AB4  	INCF gbl_giDS3231ValueBCD+D'1', F
0765  2F50  	GOTO	label125
0766        label127
0766  086F  	MOVF convertTem_0002B_1_iValue, W
0767  07B3  	ADDWF gbl_giDS3231ValueBCD, F
0768  0870  	MOVF convertTem_0002B_1_iValue+D'1', W
0769  00F3  	MOVWF CompTempVar636
076A  0834  	MOVF gbl_giDS3231ValueBCD+D'1', W
076B  1803  	BTFSC STATUS,C
076C  0AF3  	INCF CompTempVar636, F
076D  07F3  	ADDWF CompTempVar636, F
076E  0873  	MOVF CompTempVar636, W
076F  00B4  	MOVWF gbl_giDS3231ValueBCD+D'1'
0770  0008  	RETURN
0771        ; } convertTemp function end

	ORG 0x00000771
0771        main
0771        ; { main ; function begin
0771  268E  	CALL initialise_00000
0772        label128
0772  084C  	MOVF gbl_cTask, W
0773  3C00  	SUBLW 0x00
0774  1803  	BTFSC STATUS,C
0775  2F72  	GOTO	label128
0776  1D4C  	BTFSS gbl_cTask,2
0777  2FC7  	GOTO	label137
0778  08CF  	MOVF gbl_gcSetMode, F
0779  1D03  	BTFSS STATUS,Z
077A  2F91  	GOTO	label132
077B  26C6  	CALL ds3231Read_0001D
077C  0835  	MOVF gbl_gBcdSecond, W
077D  3A29  	XORLW 0x29
077E  1903  	BTFSC STATUS,Z
077F  2F84  	GOTO	label129
0780  0835  	MOVF gbl_gBcdSecond, W
0781  3A59  	XORLW 0x59
0782  1D03  	BTFSS STATUS,Z
0783  2F87  	GOTO	label130
0784        label129
0784  2676  	CALL oneWireBus_00017
0785  25FD  	CALL startTemp_00000
0786  2F91  	GOTO	label132
0787        label130
0787  08B5  	MOVF gbl_gBcdSecond, F
0788  1903  	BTFSC STATUS,Z
0789  2F8E  	GOTO	label131
078A  0835  	MOVF gbl_gBcdSecond, W
078B  3A30  	XORLW 0x30
078C  1D03  	BTFSS STATUS,Z
078D  2F91  	GOTO	label132
078E        label131
078E  2676  	CALL oneWireBus_00017
078F  2605  	CALL readTemp_00000
0790  26F0  	CALL convertTem_0002B
0791        label132
0791  0852  	MOVF gbl_gBcdWhiteOnHour, W
0792  0637  	XORWF gbl_gBcdHour, W
0793  1D03  	BTFSS STATUS,Z
0794  2F99  	GOTO	label133
0795  0851  	MOVF gbl_gBcdWhiteOnMinute, W
0796  0636  	XORWF gbl_gBcdMinute, W
0797  1903  	BTFSC STATUS,Z
0798  1487  	BSF gbl_portc,1
0799        label133
0799  0854  	MOVF gbl_gBcdWhiteOffHour, W
079A  0637  	XORWF gbl_gBcdHour, W
079B  1D03  	BTFSS STATUS,Z
079C  2FA1  	GOTO	label134
079D  0853  	MOVF gbl_gBcdWhiteOffMinute, W
079E  0636  	XORWF gbl_gBcdMinute, W
079F  1903  	BTFSC STATUS,Z
07A0  1087  	BCF gbl_portc,1
07A1        label134
07A1  0856  	MOVF gbl_gBcdBlueOnHour, W
07A2  0637  	XORWF gbl_gBcdHour, W
07A3  1D03  	BTFSS STATUS,Z
07A4  2FA9  	GOTO	label135
07A5  0855  	MOVF gbl_gBcdBlueOnMinute, W
07A6  0636  	XORWF gbl_gBcdMinute, W
07A7  1903  	BTFSC STATUS,Z
07A8  1507  	BSF gbl_portc,2
07A9        label135
07A9  0858  	MOVF gbl_gBcdBlueOffHour, W
07AA  0637  	XORWF gbl_gBcdHour, W
07AB  1D03  	BTFSS STATUS,Z
07AC  2FB1  	GOTO	label136
07AD  0857  	MOVF gbl_gBcdBlueOffMinute, W
07AE  0636  	XORWF gbl_gBcdMinute, W
07AF  1903  	BTFSC STATUS,Z
07B0  1107  	BCF gbl_portc,2
07B1        label136
07B1  0834  	MOVF gbl_giDS3231ValueBCD+D'1', W
07B2  00EC  	MOVWF main_6_cTempTruncated
07B3  0859  	MOVF gbl_gBcdFanOnTemp, W
07B4  026C  	SUBWF main_6_cTempTruncated, W
07B5  1803  	BTFSC STATUS,C
07B6  1485  	BSF gbl_porta,1
07B7  086C  	MOVF main_6_cTempTruncated, W
07B8  025A  	SUBWF gbl_gBcdFanOffTemp, W
07B9  1803  	BTFSC STATUS,C
07BA  1085  	BCF gbl_porta,1
07BB  194D  	BTFSC gbl_gbFanOn,2
07BC  1485  	BSF gbl_porta,1
07BD  086C  	MOVF main_6_cTempTruncated, W
07BE  025B  	SUBWF gbl_gBcdHeaterOnTemp, W
07BF  1803  	BTFSC STATUS,C
07C0  1405  	BSF gbl_porta,0
07C1  085C  	MOVF gbl_gBcdHeaterOffTemp, W
07C2  026C  	SUBWF main_6_cTempTruncated, W
07C3  1803  	BTFSC STATUS,C
07C4  1005  	BCF gbl_porta,0
07C5  221C  	CALL tm1638Upda_00022
07C6  114C  	BCF gbl_cTask,2
07C7        label137
07C7  1CCC  	BTFSS gbl_cTask,1
07C8  2F72  	GOTO	label128
07C9  083E  	MOVF gbl_iTimer0Counts, W
07CA  3C09  	SUBLW 0x09
07CB  1803  	BTFSC STATUS,C
07CC  2FD3  	GOTO	label138
07CD  0ABF  	INCF gbl_iFlashDigitOff, F
07CE  01BE  	CLRF gbl_iTimer0Counts
07CF  084F  	MOVF gbl_gcSetMode, W
07D0  3C00  	SUBLW 0x00
07D1  1C03  	BTFSS STATUS,C
07D2  221C  	CALL tm1638Upda_00022
07D3        label138
07D3  25DA  	CALL tm1638Read_00024
07D4  0866  	MOVF gbl_tm1638KeysOld, W
07D5  0665  	XORWF gbl_tm1638Keys, W
07D6  1903  	BTFSC STATUS,Z
07D7  2FDC  	GOTO	label139
07D8  2613  	CALL processKey_00028
07D9  221C  	CALL tm1638Upda_00022
07DA  0865  	MOVF gbl_tm1638Keys, W
07DB  00E6  	MOVWF gbl_tm1638KeysOld
07DC        label139
07DC  10CC  	BCF gbl_cTask,1
07DD  2F72  	GOTO	label128
07DE        ; } main function end

	ORG 0x000007DE
07DE        _startup
07DE  1283  	BCF STATUS, RP0
07DF  1303  	BCF STATUS, RP1
07E0  01B5  	CLRF gbl_gBcdSecond
07E1  01B6  	CLRF gbl_gBcdMinute
07E2  01B7  	CLRF gbl_gBcdHour
07E3  3001  	MOVLW 0x01
07E4  00B8  	MOVWF gbl_gDayOfWeek
07E5  3001  	MOVLW 0x01
07E6  00B9  	MOVWF gbl_gBcdDayOfMonth
07E7  3001  	MOVLW 0x01
07E8  00BA  	MOVWF gbl_gBcdMonth
07E9  3023  	MOVLW 0x23
07EA  00BB  	MOVWF gbl_gBcdYear
07EB  3000  	MOVLW 0x00
07EC  00BC  	MOVWF gbl_gDaysInMonth
07ED  3001  	MOVLW 0x01
07EE  00BD  	MOVWF gbl_gLeapYears
07EF  01BE  	CLRF gbl_iTimer0Counts
07F0  01BF  	CLRF gbl_iFlashDigitOff
07F1  3008  	MOVLW 0x08
07F2  00C8  	MOVWF gbl_iDigitToFlash
07F3  3001  	MOVLW 0x01
07F4  00C9  	MOVWF gbl_cTempH
07F5  3046  	MOVLW 0x46
07F6  00CA  	MOVWF gbl_cTempL
07F7  01B3  	CLRF gbl_giDS3231ValueBCD
07F8  3020  	MOVLW 0x20
07F9  00B4  	MOVWF gbl_giDS3231ValueBCD+D'1'
07FA  01CB  	CLRF gbl_gbDS3231IsMinus
07FB  01CC  	CLRF gbl_cTask
07FC  104D  	BCF gbl_gbWhiteOn,0
07FD  10CD  	BCF gbl_gbBlueOn,1
07FE  114D  	BCF gbl_gbFanOn,2
07FF  11CD  	BCF gbl_gbHeaterOn,3
0800  124D  	BCF gbl_gbFlashOff,4
0801  01CE  	CLRF gbl_gcDisplayMode
0802  01CF  	CLRF gbl_gcSetMode
0803  01D0  	CLRF gbl_gcTriggerMode
0804  01D1  	CLRF gbl_gBcdWhiteOnMinute
0805  01D2  	CLRF gbl_gBcdWhiteOnHour
0806  01D3  	CLRF gbl_gBcdWhiteOffMinute
0807  01D4  	CLRF gbl_gBcdWhiteOffHour
0808  01D5  	CLRF gbl_gBcdBlueOnMinute
0809  01D6  	CLRF gbl_gBcdBlueOnHour
080A  01D7  	CLRF gbl_gBcdBlueOffMinute
080B  01D8  	CLRF gbl_gBcdBlueOffHour
080C  3028  	MOVLW 0x28
080D  00D9  	MOVWF gbl_gBcdFanOnTemp
080E  3027  	MOVLW 0x27
080F  00DA  	MOVWF gbl_gBcdFanOffTemp
0810  3024  	MOVLW 0x24
0811  00DB  	MOVWF gbl_gBcdHeaterOnTemp
0812  3025  	MOVLW 0x25
0813  00DC  	MOVWF gbl_gBcdHeaterOffTemp
0814  3008  	MOVLW 0x08
0815  00DD  	MOVWF gbl_tm1638MaxDigits
0816  3002  	MOVLW 0x02
0817  00DE  	MOVWF gbl_tm1638DisplayNumtoSeg
0818  3080  	MOVLW 0x80
0819  00DF  	MOVWF gbl_tm1638Dot
081A  3007  	MOVLW 0x07
081B  00E0  	MOVWF gbl_tm1638Brightness
081C  3040  	MOVLW 0x40
081D  00E1  	MOVWF gbl_tm1638ByteSetData
081E  3042  	MOVLW 0x42
081F  00E2  	MOVWF gbl_tm1638ByteReadData
0820  30C0  	MOVLW 0xC0
0821  00E3  	MOVWF gbl_tm1638ByteSetAddr
0822  3088  	MOVLW 0x88
0823  00E4  	MOVWF gbl_tm1638ByteSetOn
0824  01A0  	CLRF gbl_tm1638Data
0825  01A1  	CLRF gbl_tm1638Data+D'1'
0826  01A2  	CLRF gbl_tm1638Data+D'2'
0827  01A3  	CLRF gbl_tm1638Data+D'3'
0828  01A4  	CLRF gbl_tm1638Data+D'4'
0829  01A5  	CLRF gbl_tm1638Data+D'5'
082A  01A6  	CLRF gbl_tm1638Data+D'6'
082B  01A7  	CLRF gbl_tm1638Data+D'7'
082C  01A8  	CLRF gbl_tm1638LEDs
082D  01A9  	CLRF gbl_tm1638LEDs+D'1'
082E  01AA  	CLRF gbl_tm1638LEDs+D'2'
082F  01AB  	CLRF gbl_tm1638LEDs+D'3'
0830  01AC  	CLRF gbl_tm1638LEDs+D'4'
0831  01AD  	CLRF gbl_tm1638LEDs+D'5'
0832  01AE  	CLRF gbl_tm1638LEDs+D'6'
0833  01AF  	CLRF gbl_tm1638LEDs+D'7'
0834  01E5  	CLRF gbl_tm1638Keys
0835  01E6  	CLRF gbl_tm1638KeysOld
0836  01E7  	CLRF gbl_iPrintStartDigit
0837  3008  	MOVLW 0x08
0838  00E8  	MOVWF gbl_iPrintDotDigit
0839  3001  	MOVLW 0x01
083A  00E9  	MOVWF gbl_iBcdAdjustment
083B  01EA  	CLRF gbl_oneWireIsPresent
083C  01EB  	CLRF gbl_oneWireResetStage
083D  118A  	BCF PCLATH,3
083E  120A  	BCF PCLATH,4
083F  2F71  	GOTO	main
	ORG 0x00000840
0840        interrupt
0840        ; { interrupt ; function begin
0840  1D0B  	BTFSS gbl_intcon,2
0841  2849  	GOTO	label141
0842  1283  	BCF STATUS, RP0
0843  1303  	BCF STATUS, RP1
0844  0ABE  	INCF gbl_iTimer0Counts, F
0845  303D  	MOVLW 0x3D
0846  0081  	MOVWF gbl_tmr0
0847  14CC  	BSF gbl_cTask,1
0848  110B  	BCF gbl_intcon,2
0849        label141
0849  1283  	BCF STATUS, RP0
084A  1303  	BCF STATUS, RP1
084B  1C0C  	BTFSS gbl_pir1,0
084C  2852  	GOTO	label142
084D  30FF  	MOVLW 0xFF
084E  008F  	MOVWF gbl_tmr1h
084F  008E  	MOVWF gbl_tmr1l
0850  100C  	BCF gbl_pir1,0
0851  154C  	BSF gbl_cTask,2
0852        label142
0852  0E32  	SWAPF Int1BContext+D'2', W
0853  0084  	MOVWF FSR
0854  0E31  	SWAPF Int1BContext+D'1', W
0855  008A  	MOVWF PCLATH
0856  0E30  	SWAPF Int1BContext, W
0857  0083  	MOVWF STATUS
0858  0EFF  	SWAPF Int1Context, F
0859  0E7F  	SWAPF Int1Context, W
085A  0009  	RETFIE
085B        ; } interrupt function end

	ORG 0x00002007
2007  3FB1  	DW 0x3FB1
